
AVRASM ver. 2.1.30  C:\Users\Alexandr\Desktop\VT101\prog1.asm Tue Mar 03 22:48:24 2015

C:\Users\Alexandr\Desktop\VT101\prog1.asm(1059): warning: Register r7 already defined by the .DEF directive
C:\Users\Alexandr\Desktop\VT101\prog1.asm(1060): warning: Register r6 already defined by the .DEF directive
C:\Users\Alexandr\Desktop\VT101\prog1.asm(1061): warning: Register r9 already defined by the .DEF directive
C:\Users\Alexandr\Desktop\VT101\prog1.asm(1062): warning: Register r8 already defined by the .DEF directive
C:\Users\Alexandr\Desktop\VT101\prog1.asm(1063): warning: Register r11 already defined by the .DEF directive
C:\Users\Alexandr\Desktop\VT101\prog1.asm(1064): warning: Register r10 already defined by the .DEF directive
C:\Users\Alexandr\Desktop\VT101\prog1.asm(1065): warning: Register r13 already defined by the .DEF directive
C:\Users\Alexandr\Desktop\VT101\prog1.asm(1066): warning: Register r12 already defined by the .DEF directive
                 
                 
                 ;CodeVisionAVR C Compiler V2.05.0 Professional
                 ;(C) Copyright 1998-2010 Pavel Haiduc, HP InfoTech s.r.l.
                 ;http://www.hpinfotech.com
                 
                 ;Chip type                : ATmega16L
                 ;Program type             : Application
                 ;Clock frequency          : 8,000000 MHz
                 ;Memory model             : Small
                 ;Optimize for             : Size
                 ;(s)printf features       : int, width
                 ;(s)scanf features        : int, width
                 ;External RAM size        : 0
                 ;Data Stack size          : 256 byte(s)
                 ;Heap size                : 0 byte(s)
                 ;Promote 'char' to 'int'  : No
                 ;'char' is unsigned       : Yes
                 ;8 bit enums              : Yes
                 ;global 'const' stored in FLASH: No
                 ;Enhanced core instructions    : On
                 ;Smart register allocation     : On
                 ;Automatic register allocation : On
                 
                 	#pragma AVRPART ADMIN PART_NAME ATmega16L
                 	#pragma AVRPART MEMORY PROG_FLASH 16384
                 	#pragma AVRPART MEMORY EEPROM 512
                 	#pragma AVRPART MEMORY INT_SRAM SIZE 1119
                 	#pragma AVRPART MEMORY INT_SRAM START_ADDR 0x60
                 
                 	#define CALL_SUPPORTED 1
                 
                 	.LISTMAC
                 	.EQU UDRE=0x5
                 	.EQU RXC=0x7
                 	.EQU USR=0xB
                 	.EQU UDR=0xC
                 	.EQU SPSR=0xE
                 	.EQU SPDR=0xF
                 	.EQU EERE=0x0
                 	.EQU EEWE=0x1
                 	.EQU EEMWE=0x2
                 	.EQU EECR=0x1C
                 	.EQU EEDR=0x1D
                 	.EQU EEARL=0x1E
                 	.EQU EEARH=0x1F
                 	.EQU WDTCR=0x21
                 	.EQU MCUCR=0x35
                 	.EQU GICR=0x3B
                 	.EQU SPL=0x3D
                 	.EQU SPH=0x3E
                 	.EQU SREG=0x3F
                 
                 	.DEF R0X0=R0
                 	.DEF R0X1=R1
                 	.DEF R0X2=R2
                 	.DEF R0X3=R3
                 	.DEF R0X4=R4
                 	.DEF R0X5=R5
                 	.DEF R0X6=R6
                 	.DEF R0X7=R7
                 	.DEF R0X8=R8
                 	.DEF R0X9=R9
                 	.DEF R0XA=R10
                 	.DEF R0XB=R11
                 	.DEF R0XC=R12
                 	.DEF R0XD=R13
                 	.DEF R0XE=R14
                 	.DEF R0XF=R15
                 	.DEF R0X10=R16
                 	.DEF R0X11=R17
                 	.DEF R0X12=R18
                 	.DEF R0X13=R19
                 	.DEF R0X14=R20
                 	.DEF R0X15=R21
                 	.DEF R0X16=R22
                 	.DEF R0X17=R23
                 	.DEF R0X18=R24
                 	.DEF R0X19=R25
                 	.DEF R0X1A=R26
                 	.DEF R0X1B=R27
                 	.DEF R0X1C=R28
                 	.DEF R0X1D=R29
                 	.DEF R0X1E=R30
                 	.DEF R0X1F=R31
                 
                 	.EQU __SRAM_START=0x0060
                 	.EQU __SRAM_END=0x045F
                 	.EQU __DSTACK_SIZE=0x0100
                 	.EQU __HEAP_SIZE=0x0000
                 	.EQU __CLEAR_SRAM_SIZE=__SRAM_END-__SRAM_START+1
                 
                 	.MACRO __CPD1N
                 	CPI  R30,LOW(@0)
                 	LDI  R26,HIGH(@0)
                 	CPC  R31,R26
                 	LDI  R26,BYTE3(@0)
                 	CPC  R22,R26
                 	LDI  R26,BYTE4(@0)
                 	CPC  R23,R26
                 	.ENDM
                 
                 	.MACRO __CPD2N
                 	CPI  R26,LOW(@0)
                 	LDI  R30,HIGH(@0)
                 	CPC  R27,R30
                 	LDI  R30,BYTE3(@0)
                 	CPC  R24,R30
                 	LDI  R30,BYTE4(@0)
                 	CPC  R25,R30
                 	.ENDM
                 
                 	.MACRO __CPWRR
                 	CP   R@0,R@2
                 	CPC  R@1,R@3
                 	.ENDM
                 
                 	.MACRO __CPWRN
                 	CPI  R@0,LOW(@2)
                 	LDI  R30,HIGH(@2)
                 	CPC  R@1,R30
                 	.ENDM
                 
                 	.MACRO __ADDB1MN
                 	SUBI R30,LOW(-@0-(@1))
                 	.ENDM
                 
                 	.MACRO __ADDB2MN
                 	SUBI R26,LOW(-@0-(@1))
                 	.ENDM
                 
                 	.MACRO __ADDW1MN
                 	SUBI R30,LOW(-@0-(@1))
                 	SBCI R31,HIGH(-@0-(@1))
                 	.ENDM
                 
                 	.MACRO __ADDW2MN
                 	SUBI R26,LOW(-@0-(@1))
                 	SBCI R27,HIGH(-@0-(@1))
                 	.ENDM
                 
                 	.MACRO __ADDW1FN
                 	SUBI R30,LOW(-2*@0-(@1))
                 	SBCI R31,HIGH(-2*@0-(@1))
                 	.ENDM
                 
                 	.MACRO __ADDD1FN
                 	SUBI R30,LOW(-2*@0-(@1))
                 	SBCI R31,HIGH(-2*@0-(@1))
                 	SBCI R22,BYTE3(-2*@0-(@1))
                 	.ENDM
                 
                 	.MACRO __ADDD1N
                 	SUBI R30,LOW(-@0)
                 	SBCI R31,HIGH(-@0)
                 	SBCI R22,BYTE3(-@0)
                 	SBCI R23,BYTE4(-@0)
                 	.ENDM
                 
                 	.MACRO __ADDD2N
                 	SUBI R26,LOW(-@0)
                 	SBCI R27,HIGH(-@0)
                 	SBCI R24,BYTE3(-@0)
                 	SBCI R25,BYTE4(-@0)
                 	.ENDM
                 
                 	.MACRO __SUBD1N
                 	SUBI R30,LOW(@0)
                 	SBCI R31,HIGH(@0)
                 	SBCI R22,BYTE3(@0)
                 	SBCI R23,BYTE4(@0)
                 	.ENDM
                 
                 	.MACRO __SUBD2N
                 	SUBI R26,LOW(@0)
                 	SBCI R27,HIGH(@0)
                 	SBCI R24,BYTE3(@0)
                 	SBCI R25,BYTE4(@0)
                 	.ENDM
                 
                 	.MACRO __ANDBMNN
                 	LDS  R30,@0+(@1)
                 	ANDI R30,LOW(@2)
                 	STS  @0+(@1),R30
                 	.ENDM
                 
                 	.MACRO __ANDWMNN
                 	LDS  R30,@0+(@1)
                 	ANDI R30,LOW(@2)
                 	STS  @0+(@1),R30
                 	LDS  R30,@0+(@1)+1
                 	ANDI R30,HIGH(@2)
                 	STS  @0+(@1)+1,R30
                 	.ENDM
                 
                 	.MACRO __ANDD1N
                 	ANDI R30,LOW(@0)
                 	ANDI R31,HIGH(@0)
                 	ANDI R22,BYTE3(@0)
                 	ANDI R23,BYTE4(@0)
                 	.ENDM
                 
                 	.MACRO __ANDD2N
                 	ANDI R26,LOW(@0)
                 	ANDI R27,HIGH(@0)
                 	ANDI R24,BYTE3(@0)
                 	ANDI R25,BYTE4(@0)
                 	.ENDM
                 
                 	.MACRO __ORBMNN
                 	LDS  R30,@0+(@1)
                 	ORI  R30,LOW(@2)
                 	STS  @0+(@1),R30
                 	.ENDM
                 
                 	.MACRO __ORWMNN
                 	LDS  R30,@0+(@1)
                 	ORI  R30,LOW(@2)
                 	STS  @0+(@1),R30
                 	LDS  R30,@0+(@1)+1
                 	ORI  R30,HIGH(@2)
                 	STS  @0+(@1)+1,R30
                 	.ENDM
                 
                 	.MACRO __ORD1N
                 	ORI  R30,LOW(@0)
                 	ORI  R31,HIGH(@0)
                 	ORI  R22,BYTE3(@0)
                 	ORI  R23,BYTE4(@0)
                 	.ENDM
                 
                 	.MACRO __ORD2N
                 	ORI  R26,LOW(@0)
                 	ORI  R27,HIGH(@0)
                 	ORI  R24,BYTE3(@0)
                 	ORI  R25,BYTE4(@0)
                 	.ENDM
                 
                 	.MACRO __DELAY_USB
                 	LDI  R24,LOW(@0)
                 __DELAY_USB_LOOP:
                 	DEC  R24
                 	BRNE __DELAY_USB_LOOP
                 	.ENDM
                 
                 	.MACRO __DELAY_USW
                 	LDI  R24,LOW(@0)
                 	LDI  R25,HIGH(@0)
                 __DELAY_USW_LOOP:
                 	SBIW R24,1
                 	BRNE __DELAY_USW_LOOP
                 	.ENDM
                 
                 	.MACRO __GETD1S
                 	LDD  R30,Y+@0
                 	LDD  R31,Y+@0+1
                 	LDD  R22,Y+@0+2
                 	LDD  R23,Y+@0+3
                 	.ENDM
                 
                 	.MACRO __GETD2S
                 	LDD  R26,Y+@0
                 	LDD  R27,Y+@0+1
                 	LDD  R24,Y+@0+2
                 	LDD  R25,Y+@0+3
                 	.ENDM
                 
                 	.MACRO __PUTD1S
                 	STD  Y+@0,R30
                 	STD  Y+@0+1,R31
                 	STD  Y+@0+2,R22
                 	STD  Y+@0+3,R23
                 	.ENDM
                 
                 	.MACRO __PUTD2S
                 	STD  Y+@0,R26
                 	STD  Y+@0+1,R27
                 	STD  Y+@0+2,R24
                 	STD  Y+@0+3,R25
                 	.ENDM
                 
                 	.MACRO __PUTDZ2
                 	STD  Z+@0,R26
                 	STD  Z+@0+1,R27
                 	STD  Z+@0+2,R24
                 	STD  Z+@0+3,R25
                 	.ENDM
                 
                 	.MACRO __CLRD1S
                 	STD  Y+@0,R30
                 	STD  Y+@0+1,R30
                 	STD  Y+@0+2,R30
                 	STD  Y+@0+3,R30
                 	.ENDM
                 
                 	.MACRO __POINTB1MN
                 	LDI  R30,LOW(@0+(@1))
                 	.ENDM
                 
                 	.MACRO __POINTW1MN
                 	LDI  R30,LOW(@0+(@1))
                 	LDI  R31,HIGH(@0+(@1))
                 	.ENDM
                 
                 	.MACRO __POINTD1M
                 	LDI  R30,LOW(@0)
                 	LDI  R31,HIGH(@0)
                 	LDI  R22,BYTE3(@0)
                 	LDI  R23,BYTE4(@0)
                 	.ENDM
                 
                 	.MACRO __POINTW1FN
                 	LDI  R30,LOW(2*@0+(@1))
                 	LDI  R31,HIGH(2*@0+(@1))
                 	.ENDM
                 
                 	.MACRO __POINTD1FN
                 	LDI  R30,LOW(2*@0+(@1))
                 	LDI  R31,HIGH(2*@0+(@1))
                 	LDI  R22,BYTE3(2*@0+(@1))
                 	LDI  R23,BYTE4(2*@0+(@1))
                 	.ENDM
                 
                 	.MACRO __POINTB2MN
                 	LDI  R26,LOW(@0+(@1))
                 	.ENDM
                 
                 	.MACRO __POINTW2MN
                 	LDI  R26,LOW(@0+(@1))
                 	LDI  R27,HIGH(@0+(@1))
                 	.ENDM
                 
                 	.MACRO __POINTBRM
                 	LDI  R@0,LOW(@1)
                 	.ENDM
                 
                 	.MACRO __POINTWRM
                 	LDI  R@0,LOW(@2)
                 	LDI  R@1,HIGH(@2)
                 	.ENDM
                 
                 	.MACRO __POINTBRMN
                 	LDI  R@0,LOW(@1+(@2))
                 	.ENDM
                 
                 	.MACRO __POINTWRMN
                 	LDI  R@0,LOW(@2+(@3))
                 	LDI  R@1,HIGH(@2+(@3))
                 	.ENDM
                 
                 	.MACRO __POINTWRFN
                 	LDI  R@0,LOW(@2*2+(@3))
                 	LDI  R@1,HIGH(@2*2+(@3))
                 	.ENDM
                 
                 	.MACRO __GETD1N
                 	LDI  R30,LOW(@0)
                 	LDI  R31,HIGH(@0)
                 	LDI  R22,BYTE3(@0)
                 	LDI  R23,BYTE4(@0)
                 	.ENDM
                 
                 	.MACRO __GETD2N
                 	LDI  R26,LOW(@0)
                 	LDI  R27,HIGH(@0)
                 	LDI  R24,BYTE3(@0)
                 	LDI  R25,BYTE4(@0)
                 	.ENDM
                 
                 	.MACRO __GETB1MN
                 	LDS  R30,@0+(@1)
                 	.ENDM
                 
                 	.MACRO __GETB1HMN
                 	LDS  R31,@0+(@1)
                 	.ENDM
                 
                 	.MACRO __GETW1MN
                 	LDS  R30,@0+(@1)
                 	LDS  R31,@0+(@1)+1
                 	.ENDM
                 
                 	.MACRO __GETD1MN
                 	LDS  R30,@0+(@1)
                 	LDS  R31,@0+(@1)+1
                 	LDS  R22,@0+(@1)+2
                 	LDS  R23,@0+(@1)+3
                 	.ENDM
                 
                 	.MACRO __GETBRMN
                 	LDS  R@0,@1+(@2)
                 	.ENDM
                 
                 	.MACRO __GETWRMN
                 	LDS  R@0,@2+(@3)
                 	LDS  R@1,@2+(@3)+1
                 	.ENDM
                 
                 	.MACRO __GETWRZ
                 	LDD  R@0,Z+@2
                 	LDD  R@1,Z+@2+1
                 	.ENDM
                 
                 	.MACRO __GETD2Z
                 	LDD  R26,Z+@0
                 	LDD  R27,Z+@0+1
                 	LDD  R24,Z+@0+2
                 	LDD  R25,Z+@0+3
                 	.ENDM
                 
                 	.MACRO __GETB2MN
                 	LDS  R26,@0+(@1)
                 	.ENDM
                 
                 	.MACRO __GETW2MN
                 	LDS  R26,@0+(@1)
                 	LDS  R27,@0+(@1)+1
                 	.ENDM
                 
                 	.MACRO __GETD2MN
                 	LDS  R26,@0+(@1)
                 	LDS  R27,@0+(@1)+1
                 	LDS  R24,@0+(@1)+2
                 	LDS  R25,@0+(@1)+3
                 	.ENDM
                 
                 	.MACRO __PUTB1MN
                 	STS  @0+(@1),R30
                 	.ENDM
                 
                 	.MACRO __PUTW1MN
                 	STS  @0+(@1),R30
                 	STS  @0+(@1)+1,R31
                 	.ENDM
                 
                 	.MACRO __PUTD1MN
                 	STS  @0+(@1),R30
                 	STS  @0+(@1)+1,R31
                 	STS  @0+(@1)+2,R22
                 	STS  @0+(@1)+3,R23
                 	.ENDM
                 
                 	.MACRO __PUTB1EN
                 	LDI  R26,LOW(@0+(@1))
                 	LDI  R27,HIGH(@0+(@1))
                 	CALL __EEPROMWRB
                 	.ENDM
                 
                 	.MACRO __PUTW1EN
                 	LDI  R26,LOW(@0+(@1))
                 	LDI  R27,HIGH(@0+(@1))
                 	CALL __EEPROMWRW
                 	.ENDM
                 
                 	.MACRO __PUTD1EN
                 	LDI  R26,LOW(@0+(@1))
                 	LDI  R27,HIGH(@0+(@1))
                 	CALL __EEPROMWRD
                 	.ENDM
                 
                 	.MACRO __PUTBR0MN
                 	STS  @0+(@1),R0
                 	.ENDM
                 
                 	.MACRO __PUTBMRN
                 	STS  @0+(@1),R@2
                 	.ENDM
                 
                 	.MACRO __PUTWMRN
                 	STS  @0+(@1),R@2
                 	STS  @0+(@1)+1,R@3
                 	.ENDM
                 
                 	.MACRO __PUTBZR
                 	STD  Z+@1,R@0
                 	.ENDM
                 
                 	.MACRO __PUTWZR
                 	STD  Z+@2,R@0
                 	STD  Z+@2+1,R@1
                 	.ENDM
                 
                 	.MACRO __GETW1R
                 	MOV  R30,R@0
                 	MOV  R31,R@1
                 	.ENDM
                 
                 	.MACRO __GETW2R
                 	MOV  R26,R@0
                 	MOV  R27,R@1
                 	.ENDM
                 
                 	.MACRO __GETWRN
                 	LDI  R@0,LOW(@2)
                 	LDI  R@1,HIGH(@2)
                 	.ENDM
                 
                 	.MACRO __PUTW1R
                 	MOV  R@0,R30
                 	MOV  R@1,R31
                 	.ENDM
                 
                 	.MACRO __PUTW2R
                 	MOV  R@0,R26
                 	MOV  R@1,R27
                 	.ENDM
                 
                 	.MACRO __ADDWRN
                 	SUBI R@0,LOW(-@2)
                 	SBCI R@1,HIGH(-@2)
                 	.ENDM
                 
                 	.MACRO __ADDWRR
                 	ADD  R@0,R@2
                 	ADC  R@1,R@3
                 	.ENDM
                 
                 	.MACRO __SUBWRN
                 	SUBI R@0,LOW(@2)
                 	SBCI R@1,HIGH(@2)
                 	.ENDM
                 
                 	.MACRO __SUBWRR
                 	SUB  R@0,R@2
                 	SBC  R@1,R@3
                 	.ENDM
                 
                 	.MACRO __ANDWRN
                 	ANDI R@0,LOW(@2)
                 	ANDI R@1,HIGH(@2)
                 	.ENDM
                 
                 	.MACRO __ANDWRR
                 	AND  R@0,R@2
                 	AND  R@1,R@3
                 	.ENDM
                 
                 	.MACRO __ORWRN
                 	ORI  R@0,LOW(@2)
                 	ORI  R@1,HIGH(@2)
                 	.ENDM
                 
                 	.MACRO __ORWRR
                 	OR   R@0,R@2
                 	OR   R@1,R@3
                 	.ENDM
                 
                 	.MACRO __EORWRR
                 	EOR  R@0,R@2
                 	EOR  R@1,R@3
                 	.ENDM
                 
                 	.MACRO __GETWRS
                 	LDD  R@0,Y+@2
                 	LDD  R@1,Y+@2+1
                 	.ENDM
                 
                 	.MACRO __PUTBSR
                 	STD  Y+@1,R@0
                 	.ENDM
                 
                 	.MACRO __PUTWSR
                 	STD  Y+@2,R@0
                 	STD  Y+@2+1,R@1
                 	.ENDM
                 
                 	.MACRO __MOVEWRR
                 	MOV  R@0,R@2
                 	MOV  R@1,R@3
                 	.ENDM
                 
                 	.MACRO __INWR
                 	IN   R@0,@2
                 	IN   R@1,@2+1
                 	.ENDM
                 
                 	.MACRO __OUTWR
                 	OUT  @2+1,R@1
                 	OUT  @2,R@0
                 	.ENDM
                 
                 	.MACRO __CALL1MN
                 	LDS  R30,@0+(@1)
                 	LDS  R31,@0+(@1)+1
                 	ICALL
                 	.ENDM
                 
                 	.MACRO __CALL1FN
                 	LDI  R30,LOW(2*@0+(@1))
                 	LDI  R31,HIGH(2*@0+(@1))
                 	CALL __GETW1PF
                 	ICALL
                 	.ENDM
                 
                 	.MACRO __CALL2EN
                 	LDI  R26,LOW(@0+(@1))
                 	LDI  R27,HIGH(@0+(@1))
                 	CALL __EEPROMRDW
                 	ICALL
                 	.ENDM
                 
                 	.MACRO __GETW1STACK
                 	IN   R26,SPL
                 	IN   R27,SPH
                 	ADIW R26,@0+1
                 	LD   R30,X+
                 	LD   R31,X
                 	.ENDM
                 
                 	.MACRO __GETD1STACK
                 	IN   R26,SPL
                 	IN   R27,SPH
                 	ADIW R26,@0+1
                 	LD   R30,X+
                 	LD   R31,X+
                 	LD   R22,X
                 	.ENDM
                 
                 	.MACRO __NBST
                 	BST  R@0,@1
                 	IN   R30,SREG
                 	LDI  R31,0x40
                 	EOR  R30,R31
                 	OUT  SREG,R30
                 	.ENDM
                 
                 
                 	.MACRO __PUTB1SN
                 	LDD  R26,Y+@0
                 	LDD  R27,Y+@0+1
                 	SUBI R26,LOW(-@1)
                 	SBCI R27,HIGH(-@1)
                 	ST   X,R30
                 	.ENDM
                 
                 	.MACRO __PUTW1SN
                 	LDD  R26,Y+@0
                 	LDD  R27,Y+@0+1
                 	SUBI R26,LOW(-@1)
                 	SBCI R27,HIGH(-@1)
                 	ST   X+,R30
                 	ST   X,R31
                 	.ENDM
                 
                 	.MACRO __PUTD1SN
                 	LDD  R26,Y+@0
                 	LDD  R27,Y+@0+1
                 	SUBI R26,LOW(-@1)
                 	SBCI R27,HIGH(-@1)
                 	CALL __PUTDP1
                 	.ENDM
                 
                 	.MACRO __PUTB1SNS
                 	LDD  R26,Y+@0
                 	LDD  R27,Y+@0+1
                 	ADIW R26,@1
                 	ST   X,R30
                 	.ENDM
                 
                 	.MACRO __PUTW1SNS
                 	LDD  R26,Y+@0
                 	LDD  R27,Y+@0+1
                 	ADIW R26,@1
                 	ST   X+,R30
                 	ST   X,R31
                 	.ENDM
                 
                 	.MACRO __PUTD1SNS
                 	LDD  R26,Y+@0
                 	LDD  R27,Y+@0+1
                 	ADIW R26,@1
                 	CALL __PUTDP1
                 	.ENDM
                 
                 	.MACRO __PUTB1PMN
                 	LDS  R26,@0
                 	LDS  R27,@0+1
                 	SUBI R26,LOW(-@1)
                 	SBCI R27,HIGH(-@1)
                 	ST   X,R30
                 	.ENDM
                 
                 	.MACRO __PUTW1PMN
                 	LDS  R26,@0
                 	LDS  R27,@0+1
                 	SUBI R26,LOW(-@1)
                 	SBCI R27,HIGH(-@1)
                 	ST   X+,R30
                 	ST   X,R31
                 	.ENDM
                 
                 	.MACRO __PUTD1PMN
                 	LDS  R26,@0
                 	LDS  R27,@0+1
                 	SUBI R26,LOW(-@1)
                 	SBCI R27,HIGH(-@1)
                 	CALL __PUTDP1
                 	.ENDM
                 
                 	.MACRO __PUTB1PMNS
                 	LDS  R26,@0
                 	LDS  R27,@0+1
                 	ADIW R26,@1
                 	ST   X,R30
                 	.ENDM
                 
                 	.MACRO __PUTW1PMNS
                 	LDS  R26,@0
                 	LDS  R27,@0+1
                 	ADIW R26,@1
                 	ST   X+,R30
                 	ST   X,R31
                 	.ENDM
                 
                 	.MACRO __PUTD1PMNS
                 	LDS  R26,@0
                 	LDS  R27,@0+1
                 	ADIW R26,@1
                 	CALL __PUTDP1
                 	.ENDM
                 
                 	.MACRO __PUTB1RN
                 	MOVW R26,R@0
                 	SUBI R26,LOW(-@1)
                 	SBCI R27,HIGH(-@1)
                 	ST   X,R30
                 	.ENDM
                 
                 	.MACRO __PUTW1RN
                 	MOVW R26,R@0
                 	SUBI R26,LOW(-@1)
                 	SBCI R27,HIGH(-@1)
                 	ST   X+,R30
                 	ST   X,R31
                 	.ENDM
                 
                 	.MACRO __PUTD1RN
                 	MOVW R26,R@0
                 	SUBI R26,LOW(-@1)
                 	SBCI R27,HIGH(-@1)
                 	CALL __PUTDP1
                 	.ENDM
                 
                 	.MACRO __PUTB1RNS
                 	MOVW R26,R@0
                 	ADIW R26,@1
                 	ST   X,R30
                 	.ENDM
                 
                 	.MACRO __PUTW1RNS
                 	MOVW R26,R@0
                 	ADIW R26,@1
                 	ST   X+,R30
                 	ST   X,R31
                 	.ENDM
                 
                 	.MACRO __PUTD1RNS
                 	MOVW R26,R@0
                 	ADIW R26,@1
                 	CALL __PUTDP1
                 	.ENDM
                 
                 	.MACRO __PUTB1RON
                 	MOV  R26,R@0
                 	MOV  R27,R@1
                 	SUBI R26,LOW(-@2)
                 	SBCI R27,HIGH(-@2)
                 	ST   X,R30
                 	.ENDM
                 
                 	.MACRO __PUTW1RON
                 	MOV  R26,R@0
                 	MOV  R27,R@1
                 	SUBI R26,LOW(-@2)
                 	SBCI R27,HIGH(-@2)
                 	ST   X+,R30
                 	ST   X,R31
                 	.ENDM
                 
                 	.MACRO __PUTD1RON
                 	MOV  R26,R@0
                 	MOV  R27,R@1
                 	SUBI R26,LOW(-@2)
                 	SBCI R27,HIGH(-@2)
                 	CALL __PUTDP1
                 	.ENDM
                 
                 	.MACRO __PUTB1RONS
                 	MOV  R26,R@0
                 	MOV  R27,R@1
                 	ADIW R26,@2
                 	ST   X,R30
                 	.ENDM
                 
                 	.MACRO __PUTW1RONS
                 	MOV  R26,R@0
                 	MOV  R27,R@1
                 	ADIW R26,@2
                 	ST   X+,R30
                 	ST   X,R31
                 	.ENDM
                 
                 	.MACRO __PUTD1RONS
                 	MOV  R26,R@0
                 	MOV  R27,R@1
                 	ADIW R26,@2
                 	CALL __PUTDP1
                 	.ENDM
                 
                 
                 	.MACRO __GETB1SX
                 	MOVW R30,R28
                 	SUBI R30,LOW(-@0)
                 	SBCI R31,HIGH(-@0)
                 	LD   R30,Z
                 	.ENDM
                 
                 	.MACRO __GETB1HSX
                 	MOVW R30,R28
                 	SUBI R30,LOW(-@0)
                 	SBCI R31,HIGH(-@0)
                 	LD   R31,Z
                 	.ENDM
                 
                 	.MACRO __GETW1SX
                 	MOVW R30,R28
                 	SUBI R30,LOW(-@0)
                 	SBCI R31,HIGH(-@0)
                 	LD   R0,Z+
                 	LD   R31,Z
                 	MOV  R30,R0
                 	.ENDM
                 
                 	.MACRO __GETD1SX
                 	MOVW R30,R28
                 	SUBI R30,LOW(-@0)
                 	SBCI R31,HIGH(-@0)
                 	LD   R0,Z+
                 	LD   R1,Z+
                 	LD   R22,Z+
                 	LD   R23,Z
                 	MOVW R30,R0
                 	.ENDM
                 
                 	.MACRO __GETB2SX
                 	MOVW R26,R28
                 	SUBI R26,LOW(-@0)
                 	SBCI R27,HIGH(-@0)
                 	LD   R26,X
                 	.ENDM
                 
                 	.MACRO __GETW2SX
                 	MOVW R26,R28
                 	SUBI R26,LOW(-@0)
                 	SBCI R27,HIGH(-@0)
                 	LD   R0,X+
                 	LD   R27,X
                 	MOV  R26,R0
                 	.ENDM
                 
                 	.MACRO __GETD2SX
                 	MOVW R26,R28
                 	SUBI R26,LOW(-@0)
                 	SBCI R27,HIGH(-@0)
                 	LD   R0,X+
                 	LD   R1,X+
                 	LD   R24,X+
                 	LD   R25,X
                 	MOVW R26,R0
                 	.ENDM
                 
                 	.MACRO __GETBRSX
                 	MOVW R30,R28
                 	SUBI R30,LOW(-@1)
                 	SBCI R31,HIGH(-@1)
                 	LD   R@0,Z
                 	.ENDM
                 
                 	.MACRO __GETWRSX
                 	MOVW R30,R28
                 	SUBI R30,LOW(-@2)
                 	SBCI R31,HIGH(-@2)
                 	LD   R@0,Z+
                 	LD   R@1,Z
                 	.ENDM
                 
                 	.MACRO __GETBRSX2
                 	MOVW R26,R28
                 	SUBI R26,LOW(-@1)
                 	SBCI R27,HIGH(-@1)
                 	LD   R@0,X
                 	.ENDM
                 
                 	.MACRO __GETWRSX2
                 	MOVW R26,R28
                 	SUBI R26,LOW(-@2)
                 	SBCI R27,HIGH(-@2)
                 	LD   R@0,X+
                 	LD   R@1,X
                 	.ENDM
                 
                 	.MACRO __LSLW8SX
                 	MOVW R30,R28
                 	SUBI R30,LOW(-@0)
                 	SBCI R31,HIGH(-@0)
                 	LD   R31,Z
                 	CLR  R30
                 	.ENDM
                 
                 	.MACRO __PUTB1SX
                 	MOVW R26,R28
                 	SUBI R26,LOW(-@0)
                 	SBCI R27,HIGH(-@0)
                 	ST   X,R30
                 	.ENDM
                 
                 	.MACRO __PUTW1SX
                 	MOVW R26,R28
                 	SUBI R26,LOW(-@0)
                 	SBCI R27,HIGH(-@0)
                 	ST   X+,R30
                 	ST   X,R31
                 	.ENDM
                 
                 	.MACRO __PUTD1SX
                 	MOVW R26,R28
                 	SUBI R26,LOW(-@0)
                 	SBCI R27,HIGH(-@0)
                 	ST   X+,R30
                 	ST   X+,R31
                 	ST   X+,R22
                 	ST   X,R23
                 	.ENDM
                 
                 	.MACRO __CLRW1SX
                 	MOVW R26,R28
                 	SUBI R26,LOW(-@0)
                 	SBCI R27,HIGH(-@0)
                 	ST   X+,R30
                 	ST   X,R30
                 	.ENDM
                 
                 	.MACRO __CLRD1SX
                 	MOVW R26,R28
                 	SUBI R26,LOW(-@0)
                 	SBCI R27,HIGH(-@0)
                 	ST   X+,R30
                 	ST   X+,R30
                 	ST   X+,R30
                 	ST   X,R30
                 	.ENDM
                 
                 	.MACRO __PUTB2SX
                 	MOVW R30,R28
                 	SUBI R30,LOW(-@0)
                 	SBCI R31,HIGH(-@0)
                 	ST   Z,R26
                 	.ENDM
                 
                 	.MACRO __PUTW2SX
                 	MOVW R30,R28
                 	SUBI R30,LOW(-@0)
                 	SBCI R31,HIGH(-@0)
                 	ST   Z+,R26
                 	ST   Z,R27
                 	.ENDM
                 
                 	.MACRO __PUTD2SX
                 	MOVW R30,R28
                 	SUBI R30,LOW(-@0)
                 	SBCI R31,HIGH(-@0)
                 	ST   Z+,R26
                 	ST   Z+,R27
                 	ST   Z+,R24
                 	ST   Z,R25
                 	.ENDM
                 
                 	.MACRO __PUTBSRX
                 	MOVW R30,R28
                 	SUBI R30,LOW(-@1)
                 	SBCI R31,HIGH(-@1)
                 	ST   Z,R@0
                 	.ENDM
                 
                 	.MACRO __PUTWSRX
                 	MOVW R30,R28
                 	SUBI R30,LOW(-@2)
                 	SBCI R31,HIGH(-@2)
                 	ST   Z+,R@0
                 	ST   Z,R@1
                 	.ENDM
                 
                 	.MACRO __PUTB1SNX
                 	MOVW R26,R28
                 	SUBI R26,LOW(-@0)
                 	SBCI R27,HIGH(-@0)
                 	LD   R0,X+
                 	LD   R27,X
                 	MOV  R26,R0
                 	SUBI R26,LOW(-@1)
                 	SBCI R27,HIGH(-@1)
                 	ST   X,R30
                 	.ENDM
                 
                 	.MACRO __PUTW1SNX
                 	MOVW R26,R28
                 	SUBI R26,LOW(-@0)
                 	SBCI R27,HIGH(-@0)
                 	LD   R0,X+
                 	LD   R27,X
                 	MOV  R26,R0
                 	SUBI R26,LOW(-@1)
                 	SBCI R27,HIGH(-@1)
                 	ST   X+,R30
                 	ST   X,R31
                 	.ENDM
                 
                 	.MACRO __PUTD1SNX
                 	MOVW R26,R28
                 	SUBI R26,LOW(-@0)
                 	SBCI R27,HIGH(-@0)
                 	LD   R0,X+
                 	LD   R27,X
                 	MOV  R26,R0
                 	SUBI R26,LOW(-@1)
                 	SBCI R27,HIGH(-@1)
                 	ST   X+,R30
                 	ST   X+,R31
                 	ST   X+,R22
                 	ST   X,R23
                 	.ENDM
                 
                 	.MACRO __MULBRR
                 	MULS R@0,R@1
                 	MOVW R30,R0
                 	.ENDM
                 
                 	.MACRO __MULBRRU
                 	MUL  R@0,R@1
                 	MOVW R30,R0
                 	.ENDM
                 
                 	.MACRO __MULBRR0
                 	MULS R@0,R@1
                 	.ENDM
                 
                 	.MACRO __MULBRRU0
                 	MUL  R@0,R@1
                 	.ENDM
                 
                 	.MACRO __MULBNWRU
                 	LDI  R26,@2
                 	MUL  R26,R@0
                 	MOVW R30,R0
                 	MUL  R26,R@1
                 	ADD  R31,R0
                 	.ENDM
                 
                 ;NAME DEFINITIONS FOR GLOBAL VARIABLES ALLOCATED TO REGISTERS
                 	.DEF _CRCLow=R7
                 	.DEF _rx_counter=R6
                 	.DEF _mod_time=R9
                 	.DEF _mod_time_s=R8
                 	.DEF _rx_wr_index=R11
                 	.DEF _CRCHigh=R10
                 	.DEF _tx_buffer_begin=R13
                 	.DEF _tx_buffer_end=R12
                 
                 	.CSEG
                 	.ORG 0x00
                 
                 ;START OF CODE MARKER
                 __START_OF_CODE:
                 
                 ;INTERRUPT VECTORS
000000 940c 0146 	JMP  __RESET
000002 940c 0000 	JMP  0x00
000004 940c 0000 	JMP  0x00
000006 940c 0315 	JMP  _timer2_comp_isr
000008 940c 0209 	JMP  _timer2_ovf_isr
00000a 940c 0206 	JMP  _timer1_capt_isr
00000c 940c 0207 	JMP  _timer1_compa_isr
00000e 940c 0208 	JMP  _timer1_compb_isr
000010 940c 01ff 	JMP  _timer1_ovf_isr
000012 940c 01c6 	JMP  _timer0_ovf_isr
000014 940c 0000 	JMP  0x00
000016 940c 0176 	JMP  _usart_rx_isr
000018 940c 0000 	JMP  0x00
00001a 940c 01ab 	JMP  _usart_tx_isr
00001c 940c 0000 	JMP  0x00
00001e 940c 0000 	JMP  0x00
000020 940c 0000 	JMP  0x00
000022 940c 0000 	JMP  0x00
000024 940c 0000 	JMP  0x00
000026 940c 01fe 	JMP  _timer0_comp_isr
000028 940c 0000 	JMP  0x00
                 
                 _crctable:
00002a 0000
00002b c1c0
00002c 81c1
00002d 4001      	.DB  0x0,0x0,0xC0,0xC1,0xC1,0x81,0x1,0x40
00002e 01c3
00002f c003
000030 8002
000031 41c2      	.DB  0xC3,0x1,0x3,0xC0,0x2,0x80,0xC2,0x41
000032 01c6
000033 c006
000034 8007
000035 41c7      	.DB  0xC6,0x1,0x6,0xC0,0x7,0x80,0xC7,0x41
000036 0005
000037 c1c5
000038 81c4
000039 4004      	.DB  0x5,0x0,0xC5,0xC1,0xC4,0x81,0x4,0x40
00003a 01cc
00003b c00c
00003c 800d
00003d 41cd      	.DB  0xCC,0x1,0xC,0xC0,0xD,0x80,0xCD,0x41
00003e 000f
00003f c1cf
000040 81ce
000041 400e      	.DB  0xF,0x0,0xCF,0xC1,0xCE,0x81,0xE,0x40
000042 000a
000043 c1ca
000044 81cb
000045 400b      	.DB  0xA,0x0,0xCA,0xC1,0xCB,0x81,0xB,0x40
000046 01c9
000047 c009
000048 8008
000049 41c8      	.DB  0xC9,0x1,0x9,0xC0,0x8,0x80,0xC8,0x41
00004a 01d8
00004b c018
00004c 8019
00004d 41d9      	.DB  0xD8,0x1,0x18,0xC0,0x19,0x80,0xD9,0x41
00004e 001b
00004f c1db
000050 81da
000051 401a      	.DB  0x1B,0x0,0xDB,0xC1,0xDA,0x81,0x1A,0x40
000052 001e
000053 c1de
000054 81df
000055 401f      	.DB  0x1E,0x0,0xDE,0xC1,0xDF,0x81,0x1F,0x40
000056 01dd
000057 c01d
000058 801c
000059 41dc      	.DB  0xDD,0x1,0x1D,0xC0,0x1C,0x80,0xDC,0x41
00005a 0014
00005b c1d4
00005c 81d5
00005d 4015      	.DB  0x14,0x0,0xD4,0xC1,0xD5,0x81,0x15,0x40
00005e 01d7
00005f c017
000060 8016
000061 41d6      	.DB  0xD7,0x1,0x17,0xC0,0x16,0x80,0xD6,0x41
000062 01d2
000063 c012
000064 8013
000065 41d3      	.DB  0xD2,0x1,0x12,0xC0,0x13,0x80,0xD3,0x41
000066 0011
000067 c1d1
000068 81d0
000069 4010      	.DB  0x11,0x0,0xD1,0xC1,0xD0,0x81,0x10,0x40
00006a 01f0
00006b c030
00006c 8031
00006d 41f1      	.DB  0xF0,0x1,0x30,0xC0,0x31,0x80,0xF1,0x41
00006e 0033
00006f c1f3
000070 81f2
000071 4032      	.DB  0x33,0x0,0xF3,0xC1,0xF2,0x81,0x32,0x40
000072 0036
000073 c1f6
000074 81f7
000075 4037      	.DB  0x36,0x0,0xF6,0xC1,0xF7,0x81,0x37,0x40
000076 01f5
000077 c035
000078 8034
000079 41f4      	.DB  0xF5,0x1,0x35,0xC0,0x34,0x80,0xF4,0x41
00007a 003c
00007b c1fc
00007c 81fd
00007d 403d      	.DB  0x3C,0x0,0xFC,0xC1,0xFD,0x81,0x3D,0x40
00007e 01ff
00007f c03f
000080 803e
000081 41fe      	.DB  0xFF,0x1,0x3F,0xC0,0x3E,0x80,0xFE,0x41
000082 01fa
000083 c03a
000084 803b
000085 41fb      	.DB  0xFA,0x1,0x3A,0xC0,0x3B,0x80,0xFB,0x41
000086 0039
000087 c1f9
000088 81f8
000089 4038      	.DB  0x39,0x0,0xF9,0xC1,0xF8,0x81,0x38,0x40
00008a 0028
00008b c1e8
00008c 81e9
00008d 4029      	.DB  0x28,0x0,0xE8,0xC1,0xE9,0x81,0x29,0x40
00008e 01eb
00008f c02b
000090 802a
000091 41ea      	.DB  0xEB,0x1,0x2B,0xC0,0x2A,0x80,0xEA,0x41
000092 01ee
000093 c02e
000094 802f
000095 41ef      	.DB  0xEE,0x1,0x2E,0xC0,0x2F,0x80,0xEF,0x41
000096 002d
000097 c1ed
000098 81ec
000099 402c      	.DB  0x2D,0x0,0xED,0xC1,0xEC,0x81,0x2C,0x40
00009a 01e4
00009b c024
00009c 8025
00009d 41e5      	.DB  0xE4,0x1,0x24,0xC0,0x25,0x80,0xE5,0x41
00009e 0027
00009f c1e7
0000a0 81e6
0000a1 4026      	.DB  0x27,0x0,0xE7,0xC1,0xE6,0x81,0x26,0x40
0000a2 0022
0000a3 c1e2
0000a4 81e3
0000a5 4023      	.DB  0x22,0x0,0xE2,0xC1,0xE3,0x81,0x23,0x40
0000a6 01e1
0000a7 c021
0000a8 8020
0000a9 41e0      	.DB  0xE1,0x1,0x21,0xC0,0x20,0x80,0xE0,0x41
0000aa 01a0
0000ab c060
0000ac 8061
0000ad 41a1      	.DB  0xA0,0x1,0x60,0xC0,0x61,0x80,0xA1,0x41
0000ae 0063
0000af c1a3
0000b0 81a2
0000b1 4062      	.DB  0x63,0x0,0xA3,0xC1,0xA2,0x81,0x62,0x40
0000b2 0066
0000b3 c1a6
0000b4 81a7
0000b5 4067      	.DB  0x66,0x0,0xA6,0xC1,0xA7,0x81,0x67,0x40
0000b6 01a5
0000b7 c065
0000b8 8064
0000b9 41a4      	.DB  0xA5,0x1,0x65,0xC0,0x64,0x80,0xA4,0x41
0000ba 006c
0000bb c1ac
0000bc 81ad
0000bd 406d      	.DB  0x6C,0x0,0xAC,0xC1,0xAD,0x81,0x6D,0x40
0000be 01af
0000bf c06f
0000c0 806e
0000c1 41ae      	.DB  0xAF,0x1,0x6F,0xC0,0x6E,0x80,0xAE,0x41
0000c2 01aa
0000c3 c06a
0000c4 806b
0000c5 41ab      	.DB  0xAA,0x1,0x6A,0xC0,0x6B,0x80,0xAB,0x41
0000c6 0069
0000c7 c1a9
0000c8 81a8
0000c9 4068      	.DB  0x69,0x0,0xA9,0xC1,0xA8,0x81,0x68,0x40
0000ca 0078
0000cb c1b8
0000cc 81b9
0000cd 4079      	.DB  0x78,0x0,0xB8,0xC1,0xB9,0x81,0x79,0x40
0000ce 01bb
0000cf c07b
0000d0 807a
0000d1 41ba      	.DB  0xBB,0x1,0x7B,0xC0,0x7A,0x80,0xBA,0x41
0000d2 01be
0000d3 c07e
0000d4 807f
0000d5 41bf      	.DB  0xBE,0x1,0x7E,0xC0,0x7F,0x80,0xBF,0x41
0000d6 007d
0000d7 c1bd
0000d8 81bc
0000d9 407c      	.DB  0x7D,0x0,0xBD,0xC1,0xBC,0x81,0x7C,0x40
0000da 01b4
0000db c074
0000dc 8075
0000dd 41b5      	.DB  0xB4,0x1,0x74,0xC0,0x75,0x80,0xB5,0x41
0000de 0077
0000df c1b7
0000e0 81b6
0000e1 4076      	.DB  0x77,0x0,0xB7,0xC1,0xB6,0x81,0x76,0x40
0000e2 0072
0000e3 c1b2
0000e4 81b3
0000e5 4073      	.DB  0x72,0x0,0xB2,0xC1,0xB3,0x81,0x73,0x40
0000e6 01b1
0000e7 c071
0000e8 8070
0000e9 41b0      	.DB  0xB1,0x1,0x71,0xC0,0x70,0x80,0xB0,0x41
0000ea 0050
0000eb c190
0000ec 8191
0000ed 4051      	.DB  0x50,0x0,0x90,0xC1,0x91,0x81,0x51,0x40
0000ee 0193
0000ef c053
0000f0 8052
0000f1 4192      	.DB  0x93,0x1,0x53,0xC0,0x52,0x80,0x92,0x41
0000f2 0196
0000f3 c056
0000f4 8057
0000f5 4197      	.DB  0x96,0x1,0x56,0xC0,0x57,0x80,0x97,0x41
0000f6 0055
0000f7 c195
0000f8 8194
0000f9 4054      	.DB  0x55,0x0,0x95,0xC1,0x94,0x81,0x54,0x40
0000fa 019c
0000fb c05c
0000fc 805d
0000fd 419d      	.DB  0x9C,0x1,0x5C,0xC0,0x5D,0x80,0x9D,0x41
0000fe 005f
0000ff c19f
000100 819e
000101 405e      	.DB  0x5F,0x0,0x9F,0xC1,0x9E,0x81,0x5E,0x40
000102 005a
000103 c19a
000104 819b
000105 405b      	.DB  0x5A,0x0,0x9A,0xC1,0x9B,0x81,0x5B,0x40
000106 0199
000107 c059
000108 8058
000109 4198      	.DB  0x99,0x1,0x59,0xC0,0x58,0x80,0x98,0x41
00010a 0188
00010b c048
00010c 8049
00010d 4189      	.DB  0x88,0x1,0x48,0xC0,0x49,0x80,0x89,0x41
00010e 004b
00010f c18b
000110 818a
000111 404a      	.DB  0x4B,0x0,0x8B,0xC1,0x8A,0x81,0x4A,0x40
000112 004e
000113 c18e
000114 818f
000115 404f      	.DB  0x4E,0x0,0x8E,0xC1,0x8F,0x81,0x4F,0x40
000116 018d
000117 c04d
000118 804c
000119 418c      	.DB  0x8D,0x1,0x4D,0xC0,0x4C,0x80,0x8C,0x41
00011a 0044
00011b c184
00011c 8185
00011d 4045      	.DB  0x44,0x0,0x84,0xC1,0x85,0x81,0x45,0x40
00011e 0187
00011f c047
000120 8046
000121 4186      	.DB  0x87,0x1,0x47,0xC0,0x46,0x80,0x86,0x41
000122 0182
000123 c042
000124 8043
000125 4183      	.DB  0x82,0x1,0x42,0xC0,0x43,0x80,0x83,0x41
000126 0041
000127 c181
000128 8180
000129 4040      	.DB  0x41,0x0,0x81,0xC1,0x80,0x81,0x40,0x40
                 
                 ;REGISTER BIT VARIABLES INITIALIZATION
                 __REG_BIT_VARS:
00012a 0000      	.DW  0x0000
00012b 0000      	.DW  0x0000
                 
                 _0x122:
00012c 0000
00012d 0000
00012e 0000
00012f 0000      	.DB  0x0,0x0,0x0,0x0,0x0,0x0,0x0,0x0
000130 0000
000131 0000
000132 0000
C:\Users\Alexandr\Desktop\VT101\prog1.asm(1170): warning: .cseg .db misalignment - padding zero byte
000133 0000      	.DB  0x0,0x0,0x0,0x0,0x0,0x0,0x0
                 _0x3EB:
000134 00ff
000135 ff00      	.DB  0xFF,0x0,0x0,0xFF
                 _0x2000060:
C:\Users\Alexandr\Desktop\VT101\prog1.asm(1174): warning: .cseg .db misalignment - padding zero byte
000136 0001      	.DB  0x1
                 _0x2000000:
000137 4e2d
000138 4e41
000139 4900
00013a 464e      	.DB  0x2D,0x4E,0x41,0x4E,0x0,0x49,0x4E,0x46
C:\Users\Alexandr\Desktop\VT101\prog1.asm(1177): warning: .cseg .db misalignment - padding zero byte
00013b 0000      	.DB  0x0
                 
                 __GLOBAL_INI_TBL:
00013c 0004      	.DW  0x04
00013d 0002      	.DW  0x02
00013e 0254      	.DW  __REG_BIT_VARS*2
                 
00013f 0004      	.DW  0x04
000140 0007      	.DW  0x07
000141 0268      	.DW  _0x3EB*2
                 
000142 0001      	.DW  0x01
000143 023a      	.DW  __seed_G100
000144 026c      	.DW  _0x2000060*2
                 
                 _0xFFFFFFFF:
000145 0000      	.DW  0
                 
                 __RESET:
000146 94f8      	CLI
000147 27ee      	CLR  R30
000148 bbec      	OUT  EECR,R30
                 
                 ;INTERRUPT VECTORS ARE PLACED
                 ;AT THE START OF FLASH
000149 e0f1      	LDI  R31,1
00014a bffb      	OUT  GICR,R31
00014b bfeb      	OUT  GICR,R30
00014c bfe5      	OUT  MCUCR,R30
                 
                 ;DISABLE WATCHDOG
00014d e1f8      	LDI  R31,0x18
00014e bdf1      	OUT  WDTCR,R31
00014f bde1      	OUT  WDTCR,R30
                 
                 ;CLEAR R2-R14
000150 e08d      	LDI  R24,(14-2)+1
000151 e0a2      	LDI  R26,2
000152 27bb      	CLR  R27
                 __CLEAR_REG:
000153 93ed      	ST   X+,R30
000154 958a      	DEC  R24
000155 f7e9      	BRNE __CLEAR_REG
                 
                 ;CLEAR SRAM
000156 e080      	LDI  R24,LOW(__CLEAR_SRAM_SIZE)
000157 e094      	LDI  R25,HIGH(__CLEAR_SRAM_SIZE)
000158 e6a0      	LDI  R26,__SRAM_START
                 __CLEAR_SRAM:
000159 93ed      	ST   X+,R30
00015a 9701      	SBIW R24,1
00015b f7e9      	BRNE __CLEAR_SRAM
                 
                 ;GLOBAL VARIABLES INITIALIZATION
00015c e7e8      	LDI  R30,LOW(__GLOBAL_INI_TBL*2)
00015d e0f2      	LDI  R31,HIGH(__GLOBAL_INI_TBL*2)
                 __GLOBAL_INI_NEXT:
00015e 9185      	LPM  R24,Z+
00015f 9195      	LPM  R25,Z+
000160 9700      	SBIW R24,0
000161 f061      	BREQ __GLOBAL_INI_END
000162 91a5      	LPM  R26,Z+
000163 91b5      	LPM  R27,Z+
000164 9005      	LPM  R0,Z+
000165 9015      	LPM  R1,Z+
000166 01bf      	MOVW R22,R30
000167 01f0      	MOVW R30,R0
                 __GLOBAL_INI_LOOP:
000168 9005      	LPM  R0,Z+
000169 920d      	ST   X+,R0
00016a 9701      	SBIW R24,1
00016b f7e1      	BRNE __GLOBAL_INI_LOOP
00016c 01fb      	MOVW R30,R22
00016d cff0      	RJMP __GLOBAL_INI_NEXT
                 __GLOBAL_INI_END:
                 
                 ;HARDWARE STACK POINTER INITIALIZATION
00016e e5ef      	LDI  R30,LOW(__SRAM_END-__HEAP_SIZE)
00016f bfed      	OUT  SPL,R30
000170 e0e4      	LDI  R30,HIGH(__SRAM_END-__HEAP_SIZE)
000171 bfee      	OUT  SPH,R30
                 
                 ;DATA STACK POINTER INITIALIZATION
000172 e6c0      	LDI  R28,LOW(__SRAM_START+__DSTACK_SIZE)
000173 e0d1      	LDI  R29,HIGH(__SRAM_START+__DSTACK_SIZE)
                 
000174 940c 075c 	JMP  _main
                 
                 	.ESEG
                 	.ORG 0
                 
                 	.DSEG
                 	.ORG 0x160
                 
                 	.CSEG
                 ;/*****************************************************
                 ;Project : “ ¡ ¬»¡–Œ-“
                 ;Version : 3.0.00
                 ;Date    : 02.07.2008
                 ;Author  : ÃÂÚÂÎÍËÌ ≈‚„ÂÌËÈ
                 ;Comments: V1.24.5 Standard
                 ;
                 ;Program type        : Application
                 ;Clock frequency     : 8,000000 MHz
                 ;*****************************************************/
                 ;#include <define.h>
                 	#ifndef __SLEEP_DEFINED__
                 	#define __SLEEP_DEFINED__
                 	.EQU __se_bit=0x40
                 	.EQU __sm_mask=0xB0
                 	.EQU __sm_powerdown=0x20
                 	.EQU __sm_powersave=0x30
                 	.EQU __sm_standby=0xA0
                 	.EQU __sm_ext_standby=0xB0
                 	.EQU __sm_adc_noise_red=0x10
                 	.SET power_ctrl_reg=mcucr
                 	#endif
                 ;//#define cc
                 ;//#define ca
                 ;//--------------------------------------//
                 ;//	USART Receiver buffer
                 ;//--------------------------------------//
                 ;
                 ;#define RX_BUFFER_SIZE 64
                 ;
                 ;char rx_buffer[RX_BUFFER_SIZE];
                 ;unsigned char CRCLow = 0xff,rx_counter,mod_time,mod_time_s,rx_wr_index,CRCHigh=0xff;
                 ;bit rx_c,ti_en,rx_m;
                 ;interrupt [USART_RXC] void usart_rx_isr(void)
                 ; 0000 0018         {
                 
                 	.CSEG
                 _usart_rx_isr:
000176 93aa      	ST   -Y,R26
000177 93ea      	ST   -Y,R30
000178 93fa      	ST   -Y,R31
000179 b7ef      	IN   R30,SREG
00017a 93ea      	ST   -Y,R30
                 ; 0000 0019 	char status,d;
                 ; 0000 001A 	status=UCSRA;d=UDR;
00017b 931a      	ST   -Y,R17
00017c 930a      	ST   -Y,R16
                 ;	status -> R17
                 ;	d -> R16
00017d b11b      	IN   R17,11
00017e b10c      	IN   R16,12
                 ; 0000 001B 	if (((status & (FRAMING_ERROR | PARITY_ERROR | DATA_OVERRUN))==0)&&((ti_en==0)&&(rx_c==0)))
00017f 2fe1      	MOV  R30,R17
000180 71ec      	ANDI R30,LOW(0x1C)
000181 f461      	BRNE _0x4
000182 e0a0      	LDI  R26,0
000183 fc21      	SBRC R2,1
000184 e0a1      	LDI  R26,1
000185 30a0      	CPI  R26,LOW(0x0)
000186 f429      	BRNE _0x5
000187 e0a0      	LDI  R26,0
000188 fc20      	SBRC R2,0
000189 e0a1      	LDI  R26,1
00018a 30a0      	CPI  R26,LOW(0x0)
00018b f009      	BREQ _0x6
                 _0x5:
00018c c001      	RJMP _0x4
                 _0x6:
00018d c001      	RJMP _0x7
                 _0x4:
00018e c006      	RJMP _0x3
                 _0x7:
                 ; 0000 001C 		{if (mod_time==0){rx_m=1;rx_wr_index=0;}mod_time=mod_time_s;}
00018f 2099      	TST  R9
000190 f419      	BRNE _0x8
000191 9468      	SET
000192 f822      	BLD  R2,2
000193 24bb      	CLR  R11
                 _0x8:
000194 2c98      	MOV  R9,R8
                 ; 0000 001D 	rx_buffer[rx_wr_index]=d;
                 _0x3:
000195 2deb      	MOV  R30,R11
000196 940e 1829 	CALL SUBOPT_0x0
000198 8300      	ST   Z,R16
                 ; 0000 001E 	if (++rx_wr_index >= RX_BUFFER_SIZE) rx_wr_index=0;
000199 94b3      	INC  R11
00019a e4e0      	LDI  R30,LOW(64)
00019b 16be      	CP   R11,R30
00019c f008      	BRLO _0x9
00019d 24bb      	CLR  R11
                 ; 0000 001F 	if (++rx_counter >= RX_BUFFER_SIZE) rx_counter=0;
                 _0x9:
00019e 9463      	INC  R6
00019f e4e0      	LDI  R30,LOW(64)
0001a0 166e      	CP   R6,R30
0001a1 f008      	BRLO _0xA
0001a2 2466      	CLR  R6
                 ; 0000 0020 	}
                 _0xA:
0001a3 9109      	LD   R16,Y+
0001a4 9119      	LD   R17,Y+
0001a5 91e9      	LD   R30,Y+
0001a6 bfef      	OUT  SREG,R30
0001a7 91f9      	LD   R31,Y+
0001a8 91e9      	LD   R30,Y+
0001a9 91a9      	LD   R26,Y+
0001aa 9518      	RETI
                 ;//--------------------------------------//
                 ;// USART Transmitter buffer
                 ;//--------------------------------------//
                 ;#define TX_BUFFER_SIZE 64
                 ;unsigned char tx_buffer_begin,tx_buffer_end,tx_buffer[TX_BUFFER_SIZE];
                 ;interrupt [USART_TXC] void usart_tx_isr(void)
                 ; 0000 0027         {
                 _usart_tx_isr:
0001ab 93ea      	ST   -Y,R30
0001ac 93fa      	ST   -Y,R31
0001ad b7ef      	IN   R30,SREG
0001ae 93ea      	ST   -Y,R30
                 ; 0000 0028         if (ti_en==1)
0001af fe21      	SBRS R2,1
0001b0 c010      	RJMP _0xB
                 ; 0000 0029 	        {
                 ; 0000 002A         	if (++tx_buffer_begin>=TX_BUFFER_SIZE) tx_buffer_begin=0;
0001b1 94d3      	INC  R13
0001b2 e4e0      	LDI  R30,LOW(64)
0001b3 16de      	CP   R13,R30
0001b4 f008      	BRLO _0xC
0001b5 24dd      	CLR  R13
                 ; 0000 002B 	        if (tx_buffer_begin!=tx_buffer_end) {UDR=tx_buffer[tx_buffer_begin];}
                 _0xC:
0001b6 14cd      	CP   R12,R13
0001b7 f019      	BREQ _0xD
0001b8 940e 182d 	CALL SUBOPT_0x1
                 ; 0000 002C         	else {ti_en=0;rx_c=0;rx_m=0;rx_tx=0;rx_counter=0;}
0001ba c006      	RJMP _0xE
                 _0xD:
0001bb 94e8      	CLT
0001bc f821      	BLD  R2,1
0001bd f820      	BLD  R2,0
0001be f822      	BLD  R2,2
0001bf 9892      	CBI  0x12,2
0001c0 2466      	CLR  R6
                 _0xE:
                 ; 0000 002D 	        }
                 ; 0000 002E         }
                 _0xB:
0001c1 91e9      	LD   R30,Y+
0001c2 bfef      	OUT  SREG,R30
0001c3 91f9      	LD   R31,Y+
0001c4 91e9      	LD   R30,Y+
0001c5 9518      	RETI
                 ;//-------------------------------------------------------------------//
                 ;bit buzer_en,buzer,pik_en,buzer_buzer_en;
                 ;char pik_count;
                 ;interrupt [TIM0_OVF] void timer0_ovf_isr(void)
                 ; 0000 0033         {//ÔÂ˚‚‡ÌËÂ ‰Îˇ ·ÛÁÂ‡
                 _timer0_ovf_isr:
0001c6 93aa      	ST   -Y,R26
0001c7 93ea      	ST   -Y,R30
0001c8 b7ef      	IN   R30,SREG
0001c9 93ea      	ST   -Y,R30
                 ; 0000 0034         TCNT0=TCNT0_reload;
0001ca e6ef      	LDI  R30,LOW(111)
0001cb bfe2      	OUT  0x32,R30
                 ; 0000 0035         #asm("wdr");
0001cc 95a8      	wdr
                 ; 0000 0036         if ((buzer_en==1)&&(buzer_buzer_en==1)){if (buzer==1) {buzerp=1;buzer=0;}else {buzerp=0;buzer=1;}}
0001cd fe23      	SBRS R2,3
0001ce c002      	RJMP _0x12
0001cf fc26      	SBRC R2,6
0001d0 c001      	RJMP _0x13
                 _0x12:
0001d1 c009      	RJMP _0x11
                 _0x13:
0001d2 fe24      	SBRS R2,4
0001d3 c003      	RJMP _0x14
0001d4 9a95      	SBI  0x12,5
0001d5 94e8      	CLT
0001d6 c002      	RJMP _0x38F
                 _0x14:
0001d7 9895      	CBI  0x12,5
0001d8 9468      	SET
                 _0x38F:
0001d9 f824      	BLD  R2,4
                 ; 0000 0037         else if (pik_en==1){if (++pik_count>200) {pik_en=0;pik_count=0;}if (buzer==1) {buzerp=1;buzer=0;}else {buzerp=0;buzer=1;}}
0001da c014      	RJMP _0x1A
                 _0x11:
0001db fe25      	SBRS R2,5
0001dc c011      	RJMP _0x1B
0001dd 940e 1834 	CALL SUBOPT_0x2
0001df f028      	BRLO _0x1C
0001e0 94e8      	CLT
0001e1 f825      	BLD  R2,5
0001e2 e0e0      	LDI  R30,LOW(0)
0001e3 93e0 01e0 	STS  _pik_count,R30
                 _0x1C:
0001e5 fe24      	SBRS R2,4
0001e6 c003      	RJMP _0x1D
0001e7 9a95      	SBI  0x12,5
0001e8 94e8      	CLT
0001e9 c002      	RJMP _0x390
                 _0x1D:
0001ea 9895      	CBI  0x12,5
0001eb 9468      	SET
                 _0x390:
0001ec f824      	BLD  R2,4
                 ; 0000 0038         else buzerp=0;
0001ed c001      	RJMP _0x23
                 _0x1B:
0001ee 9895      	CBI  0x12,5
                 ; 0000 0039         if (pik_en==1){if (++pik_count>200) {pik_en=0;pik_count=0;}}
                 _0x23:
                 _0x1A:
0001ef fe25      	SBRS R2,5
0001f0 c008      	RJMP _0x26
0001f1 940e 1834 	CALL SUBOPT_0x2
0001f3 f028      	BRLO _0x27
0001f4 94e8      	CLT
0001f5 f825      	BLD  R2,5
0001f6 e0e0      	LDI  R30,LOW(0)
0001f7 93e0 01e0 	STS  _pik_count,R30
                 _0x27:
                 ; 0000 003A         }
                 _0x26:
0001f9 91e9      	LD   R30,Y+
0001fa bfef      	OUT  SREG,R30
0001fb 91e9      	LD   R30,Y+
0001fc 91a9      	LD   R26,Y+
0001fd 9518      	RETI
                 ;char led_byte[5][2];
                 ;interrupt [TIM0_COMP] void timer0_comp_isr(void){}
                 ; 0000 003C interrupt [20] void timer0_comp_isr(void){}
                 _timer0_comp_isr:
0001fe 9518      	RETI
                 ;interrupt [TIM1_OVF] void timer1_ovf_isr(void){TCNT1H=0x05;TCNT1L=0x01;}
                 ; 0000 003D interrupt [9] void timer1_ovf_isr(void){TCNT1H=0x05;TCNT1L=0x01;}
                 _timer1_ovf_isr:
0001ff 93ea      	ST   -Y,R30
000200 e0e5      	LDI  R30,LOW(5)
000201 bded      	OUT  0x2D,R30
000202 e0e1      	LDI  R30,LOW(1)
000203 bdec      	OUT  0x2C,R30
000204 91e9      	LD   R30,Y+
000205 9518      	RETI
                 ;interrupt [TIM1_CAPT] void timer1_capt_isr(void){}
                 ; 0000 003E interrupt [6] void timer1_capt_isr(void){}
                 _timer1_capt_isr:
000206 9518      	RETI
                 ;interrupt [TIM1_COMPA] void timer1_compa_isr(void){}
                 ; 0000 003F interrupt [7] void timer1_compa_isr(void){}
                 _timer1_compa_isr:
000207 9518      	RETI
                 ;interrupt [TIM1_COMPB] void timer1_compb_isr(void){}
                 ; 0000 0040 interrupt [8] void timer1_compb_isr(void){}
                 _timer1_compb_isr:
000208 9518      	RETI
                 ;//-------------------------------------------------------------------//
                 ;// ÔÂ˚‚‡ÌËÂ Í‡Ê‰˚Â 500 ÏÍÒ
                 ;//-------------------------------------------------------------------//
                 ;long sys_time,whait_time;
                 ;bit key_mode,key_plus,key_mines,key_enter,key_mode_press,key_plus_press,key_mines_press,key_enter_press,key_mode_press_switch;
                 ;bit key_plus_press_switch,key_minus_press_switch,key_enter_press_switch;
                 ;char count_led,count_led1,drebezg;
                 ;bit avaria,alarm1,alarm2,alarm_alarm1,alarm_alarm2;
                 ;int count_blink,crc;
                 ;//-------------------------------------------------------------------//
                 ;interrupt [TIM2_OVF] void timer2_ovf_isr(void)
                 ; 0000 004C         {//ÔÂ˚‚‡ÌËÂ 500ÏÍÒ
                 _timer2_ovf_isr:
000209 936a      	ST   -Y,R22
00020a 937a      	ST   -Y,R23
00020b 93aa      	ST   -Y,R26
00020c 93ba      	ST   -Y,R27
00020d 93ea      	ST   -Y,R30
00020e 93fa      	ST   -Y,R31
00020f b7ef      	IN   R30,SREG
000210 93ea      	ST   -Y,R30
                 ; 0000 004D         char n;
                 ; 0000 004E         TCNT2=TCNT2_reload;
000211 931a      	ST   -Y,R17
                 ;	n -> R17
000212 e5ee      	LDI  R30,LOW(94)
000213 bde4      	OUT  0x24,R30
                 ; 0000 004F         #asm("sei");
000214 9478      	sei
                 ; 0000 0050         sys_time=sys_time+1;
000215 940e 183b 	CALL SUBOPT_0x3
                +
000217 5fef     +SUBI R30 , LOW ( - 1 )
000218 4fff     +SBCI R31 , HIGH ( - 1 )
000219 4f6f     +SBCI R22 , BYTE3 ( - 1 )
00021a 4f7f     +SBCI R23 , BYTE4 ( - 1 )
                 	__ADDD1N 1
00021b 93e0 01eb 	STS  _sys_time,R30
00021d 93f0 01ec 	STS  _sys_time+1,R31
00021f 9360 01ed 	STS  _sys_time+2,R22
000221 9370 01ee 	STS  _sys_time+3,R23
                 ; 0000 0051 
                 ; 0000 0052 	if (mod_time==0){if (rx_m==1) rx_c=1;}
000223 2099      	TST  R9
000224 f429      	BRNE _0x28
000225 fe22      	SBRS R2,2
000226 c002      	RJMP _0x29
000227 9468      	SET
000228 f820      	BLD  R2,0
                 _0x29:
                 ; 0000 0053 	else 	mod_time--;
000229 c001      	RJMP _0x2A
                 _0x28:
00022a 949a      	DEC  R9
                 ; 0000 0054 
                 ; 0000 0055 
                 ; 0000 0056         if (key_1==0){key_mode=1;if ((key_mode_press==0)&&(pik_en==0)){key_mode_press_switch=1;pik_en=1;drebezg=0;}key_mode_press=1;}
                 _0x2A:
00022b 9998      	SBIC 0x13,0
00022c c011      	RJMP _0x2B
00022d 9468      	SET
00022e f827      	BLD  R2,7
00022f e0a0      	LDI  R26,0
000230 fc33      	SBRC R3,3
000231 e0a1      	LDI  R26,1
000232 30a0      	CPI  R26,LOW(0x0)
000233 f419      	BRNE _0x2D
000234 940e 1844 	CALL SUBOPT_0x4
000236 f009      	BREQ _0x2E
                 _0x2D:
000237 c004      	RJMP _0x2C
                 _0x2E:
000238 9468      	SET
000239 f837      	BLD  R3,7
00023a 940e 1849 	CALL SUBOPT_0x5
                 _0x2C:
00023c 9468      	SET
00023d c00c      	RJMP _0x391
                 ; 0000 0057         else if ((key_2==1)&&(key_3==1)&&(key_4==1)&&(++drebezg>DREBEZG_TIME)){key_mode=0;key_mode_press=0;}
                 _0x2B:
00023e 9b99      	SBIS 0x13,1
00023f c007      	RJMP _0x31
000240 9b86      	SBIS 0x10,6
000241 c005      	RJMP _0x31
000242 9b87      	SBIS 0x10,7
000243 c003      	RJMP _0x31
000244 940e 184f 	CALL SUBOPT_0x6
000246 f408      	BRSH _0x32
                 _0x31:
000247 c003      	RJMP _0x30
                 _0x32:
000248 94e8      	CLT
000249 f827      	BLD  R2,7
                 _0x391:
00024a f833      	BLD  R3,3
                 ; 0000 0058 
                 ; 0000 0059         if (key_2==0){key_plus=1;if ((key_plus_press==0)&&(pik_en==0)){key_plus_press_switch=1;pik_en=1;drebezg=0;}key_plus_press=1;}
                 _0x30:
00024b 9999      	SBIC 0x13,1
00024c c00f      	RJMP _0x33
00024d 9468      	SET
00024e f830      	BLD  R3,0
00024f 940e 1856 	CALL SUBOPT_0x7
000251 f419      	BRNE _0x35
000252 940e 1844 	CALL SUBOPT_0x4
000254 f009      	BREQ _0x36
                 _0x35:
000255 c004      	RJMP _0x34
                 _0x36:
000256 9468      	SET
000257 f840      	BLD  R4,0
000258 940e 1849 	CALL SUBOPT_0x5
                 _0x34:
00025a 9468      	SET
00025b c00c      	RJMP _0x392
                 ; 0000 005A         else if ((key_1==1)&&(key_3==1)&&(key_4==1)&&(++drebezg>DREBEZG_TIME)){key_plus=0;key_plus_press=0;}
                 _0x33:
00025c 9b98      	SBIS 0x13,0
00025d c007      	RJMP _0x39
00025e 9b86      	SBIS 0x10,6
00025f c005      	RJMP _0x39
000260 9b87      	SBIS 0x10,7
000261 c003      	RJMP _0x39
000262 940e 184f 	CALL SUBOPT_0x6
000264 f408      	BRSH _0x3A
                 _0x39:
000265 c003      	RJMP _0x38
                 _0x3A:
000266 94e8      	CLT
000267 f830      	BLD  R3,0
                 _0x392:
000268 f834      	BLD  R3,4
                 ; 0000 005B 
                 ; 0000 005C         if (key_3==0){key_mines=1;if ((key_mines_press==0)&&(pik_en==0)){key_minus_press_switch=1;pik_en=1;drebezg=0;}key_mines_press=1;}
                 _0x38:
000269 9986      	SBIC 0x10,6
00026a c00f      	RJMP _0x3B
00026b 9468      	SET
00026c f831      	BLD  R3,1
00026d 940e 185b 	CALL SUBOPT_0x8
00026f f419      	BRNE _0x3D
000270 940e 1844 	CALL SUBOPT_0x4
000272 f009      	BREQ _0x3E
                 _0x3D:
000273 c004      	RJMP _0x3C
                 _0x3E:
000274 9468      	SET
000275 f841      	BLD  R4,1
000276 940e 1849 	CALL SUBOPT_0x5
                 _0x3C:
000278 9468      	SET
000279 c00c      	RJMP _0x393
                 ; 0000 005D         else if ((key_2==1)&&(key_1==1)&&(key_4==1)&&(++drebezg>DREBEZG_TIME)){key_mines=0;key_mines_press=0;}
                 _0x3B:
00027a 9b99      	SBIS 0x13,1
00027b c007      	RJMP _0x41
00027c 9b98      	SBIS 0x13,0
00027d c005      	RJMP _0x41
00027e 9b87      	SBIS 0x10,7
00027f c003      	RJMP _0x41
000280 940e 184f 	CALL SUBOPT_0x6
000282 f408      	BRSH _0x42
                 _0x41:
000283 c003      	RJMP _0x40
                 _0x42:
000284 94e8      	CLT
000285 f831      	BLD  R3,1
                 _0x393:
000286 f835      	BLD  R3,5
                 ; 0000 005E 
                 ; 0000 005F         if (key_4==0){key_enter=1;if (key_enter_press==0){key_enter_press_switch=1;pik_en=1;whait_time=sys_time;}key_enter_press=1;alarm_alarm1=0;alarm_alarm2=0;}
                 _0x40:
000287 9987      	SBIC 0x10,7
000288 c016      	RJMP _0x43
000289 9468      	SET
00028a f832      	BLD  R3,2
00028b fc36      	SBRC R3,6
00028c c00c      	RJMP _0x44
00028d f842      	BLD  R4,2
00028e f825      	BLD  R2,5
00028f 940e 183b 	CALL SUBOPT_0x3
000291 93e0 01ef 	STS  _whait_time,R30
000293 93f0 01f0 	STS  _whait_time+1,R31
000295 9360 01f1 	STS  _whait_time+2,R22
000297 9370 01f2 	STS  _whait_time+3,R23
                 _0x44:
000299 9468      	SET
00029a f836      	BLD  R3,6
00029b 94e8      	CLT
00029c f846      	BLD  R4,6
00029d f847      	BLD  R4,7
                 ; 0000 0060         else {key_enter=0;key_enter_press=0;}
00029e c003      	RJMP _0x45
                 _0x43:
00029f 94e8      	CLT
0002a0 f832      	BLD  R3,2
0002a1 f836      	BLD  R3,6
                 _0x45:
                 ; 0000 0061 
                 ; 0000 0062         if (++count_blink>2000) count_blink=0;
0002a2 efa5      	LDI  R26,LOW(_count_blink)
0002a3 e0b1      	LDI  R27,HIGH(_count_blink)
0002a4 91ed      	LD   R30,X+
0002a5 91fd      	LD   R31,X+
0002a6 9631      	ADIW R30,1
0002a7 93fe      	ST   -X,R31
0002a8 93ee      	ST   -X,R30
0002a9 3de1      	CPI  R30,LOW(0x7D1)
0002aa e0a7      	LDI  R26,HIGH(0x7D1)
0002ab 07fa      	CPC  R31,R26
0002ac f02c      	BRLT _0x46
0002ad e0e0      	LDI  R30,LOW(0)
0002ae 93e0 01f5 	STS  _count_blink,R30
0002b0 93e0 01f6 	STS  _count_blink+1,R30
                 ; 0000 0063         if (count_blink<300) {n=1;buzer_en=0;if ((alarm_alarm1==1)||(alarm_alarm2==1))buzer_en=1;else buzer_en=0;}
                 _0x46:
0002b2 91a0 01f5 	LDS  R26,_count_blink
0002b4 91b0 01f6 	LDS  R27,_count_blink+1
0002b6 32ac      	CPI  R26,LOW(0x12C)
0002b7 e0e1      	LDI  R30,HIGH(0x12C)
0002b8 07be      	CPC  R27,R30
0002b9 f464      	BRGE _0x47
0002ba e011      	LDI  R17,LOW(1)
0002bb 94e8      	CLT
0002bc f823      	BLD  R2,3
0002bd fc46      	SBRC R4,6
0002be c002      	RJMP _0x49
0002bf fe47      	SBRS R4,7
0002c0 c002      	RJMP _0x48
                 _0x49:
0002c1 9468      	SET
0002c2 c001      	RJMP _0x394
                 _0x48:
0002c3 94e8      	CLT
                 _0x394:
0002c4 f823      	BLD  R2,3
                 ; 0000 0064         else {n=0;if ((alarm1==1)||(alarm2==1))buzer_en=1;}
0002c5 c007      	RJMP _0x4C
                 _0x47:
0002c6 e010      	LDI  R17,LOW(0)
0002c7 fc44      	SBRC R4,4
0002c8 c002      	RJMP _0x4E
0002c9 fe45      	SBRS R4,5
0002ca c002      	RJMP _0x4D
                 _0x4E:
0002cb 9468      	SET
0002cc f823      	BLD  R2,3
                 _0x4D:
                 _0x4C:
                 ; 0000 0065 //#ifdef ca
                 ; 0000 0066          katode=0xFF;anode=anode&0b00000111;
0002cd efef      	LDI  R30,LOW(255)
0002ce bbeb      	OUT  0x1B,R30
0002cf b3e5      	IN   R30,0x15
0002d0 70e7      	ANDI R30,LOW(0x7)
0002d1 bbe5      	OUT  0x15,R30
                 ; 0000 0067 /*#else
                 ; 0000 0068         katode=0x00;anode=anode|0b01111000;anode5=0;
                 ; 0000 0069 #endif*/
                 ; 0000 006A         switch (count_led)
0002d2 91e0 01f3 	LDS  R30,_count_led
                 ; 0000 006B                 {
                 ; 0000 006C //#ifdef ca
                 ; 0000 006D                  case 4: count_led=0;anode1=1;DDRC.3=1;katode=led_byte[0][n];break;
0002d4 30e4      	CPI  R30,LOW(0x4)
0002d5 f459      	BRNE _0x53
0002d6 e0e0      	LDI  R30,LOW(0)
0002d7 93e0 01f3 	STS  _count_led,R30
0002d9 9aab      	SBI  0x15,3
0002da 9aa3      	SBI  0x14,3
0002db 940e 1860 	CALL SUBOPT_0x9
0002dd 51ef      	SUBI R30,LOW(-_led_byte)
0002de 4ffe      	SBCI R31,HIGH(-_led_byte)
0002df 81e0      	LD   R30,Z
0002e0 c029      	RJMP _0x395
                 ; 0000 006E                  case 3: count_led=4;anode2=1;DDRC.4=1;katode=led_byte[1][n];break;
                 _0x53:
0002e1 30e3      	CPI  R30,LOW(0x3)
0002e2 f441      	BRNE _0x58
0002e3 e0e4      	LDI  R30,LOW(4)
0002e4 93e0 01f3 	STS  _count_led,R30
0002e6 9aac      	SBI  0x15,4
0002e7 9aa4      	SBI  0x14,4
                +
0002e8 eea3     +LDI R26 , LOW ( _led_byte + ( 2 ) )
0002e9 e0b1     +LDI R27 , HIGH ( _led_byte + ( 2 ) )
                 	__POINTW2MN _led_byte,2
0002ea c01b      	RJMP _0x396
                 ; 0000 006F                  case 2: count_led=3;anode3=1;DDRC.5=1;katode=led_byte[2][n];break;
                 _0x58:
0002eb 30e2      	CPI  R30,LOW(0x2)
0002ec f441      	BRNE _0x5D
0002ed e0e3      	LDI  R30,LOW(3)
0002ee 93e0 01f3 	STS  _count_led,R30
0002f0 9aad      	SBI  0x15,5
0002f1 9aa5      	SBI  0x14,5
                +
0002f2 eea5     +LDI R26 , LOW ( _led_byte + ( 4 ) )
0002f3 e0b1     +LDI R27 , HIGH ( _led_byte + ( 4 ) )
                 	__POINTW2MN _led_byte,4
0002f4 c011      	RJMP _0x396
                 ; 0000 0070                  case 1: count_led=2;anode4=1;DDRC.6=1;katode=led_byte[3][n];break;
                 _0x5D:
0002f5 30e1      	CPI  R30,LOW(0x1)
0002f6 f441      	BRNE _0x67
0002f7 e0e2      	LDI  R30,LOW(2)
0002f8 93e0 01f3 	STS  _count_led,R30
0002fa 9aae      	SBI  0x15,6
0002fb 9aa6      	SBI  0x14,6
                +
0002fc eea7     +LDI R26 , LOW ( _led_byte + ( 6 ) )
0002fd e0b1     +LDI R27 , HIGH ( _led_byte + ( 6 ) )
                 	__POINTW2MN _led_byte,6
0002fe c007      	RJMP _0x396
                 ; 0000 0071                  default:count_led=1;anode5=1;DDRC.7=1;katode=led_byte[4][n];break;
                 _0x67:
0002ff e0e1      	LDI  R30,LOW(1)
000300 93e0 01f3 	STS  _count_led,R30
000302 9aaf      	SBI  0x15,7
000303 9aa7      	SBI  0x14,7
                +
000304 eea9     +LDI R26 , LOW ( _led_byte + ( 8 ) )
000305 e0b1     +LDI R27 , HIGH ( _led_byte + ( 8 ) )
                 	__POINTW2MN _led_byte,8
                 _0x396:
000306 27ee      	CLR  R30
000307 0fa1      	ADD  R26,R17
000308 1fbe      	ADC  R27,R30
000309 91ec      	LD   R30,X
                 _0x395:
00030a bbeb      	OUT  0x1B,R30
                 ; 0000 0072 /*#else
                 ; 0000 0073 
                 ; 0000 0074                 case 4: count_led=0;katode=led_byte[0,n];anode1=0;DDRC.3=1;break;
                 ; 0000 0075                 case 3: count_led=4;katode=led_byte[1,n];anode2=0;DDRC.4=1;break;
                 ; 0000 0076                 case 2: count_led=3;katode=led_byte[2,n];anode3=0;DDRC.5=1;break;
                 ; 0000 0077                 case 1: count_led=2;katode=led_byte[3,n];anode4=0;DDRC.6=1;break;
                 ; 0000 0078                 default:
                 ; 0000 0079                         {count_led=1;
                 ; 0000 007A                         if (++count_led1>5)
                 ; 0000 007B                                 {count_led1=0;katode=led_byte[4,n];anode5=1;DDRC.7=1;}*/
                 ; 0000 007C                     //    break;
                 ; 0000 007D                         }
                 ; 0000 007E 
                 ; 0000 007F 
                 ; 0000 0080 //#endif
                 ; 0000 0081  //               }
                 ; 0000 0082         }
00030b 9119      	LD   R17,Y+
00030c 91e9      	LD   R30,Y+
00030d bfef      	OUT  SREG,R30
00030e 91f9      	LD   R31,Y+
00030f 91e9      	LD   R30,Y+
000310 91b9      	LD   R27,Y+
000311 91a9      	LD   R26,Y+
000312 9179      	LD   R23,Y+
000313 9169      	LD   R22,Y+
000314 9518      	RETI
                 ;//-------------------------------------------------------------------//
                 ;interrupt [TIM2_COMP] void timer2_comp_isr(void){}
                 ; 0000 0084 interrupt [4] void timer2_comp_isr(void){}
                 _timer2_comp_isr:
000315 9518      	RETI
                 ;#include <spi.h>
                 ;
                 ;eeprom float reg[4][27]=
                 ; {{0, 4.6, 7.1,   0,   5,   0,   1,   0,   1,   0,   0,   0,0.00,20.0,   2,   2,   0,  10,   2,   5,   0,   0,   1,   0,1.00, 2.15,    1},
                 ;  {0, 4.6, 7.1,   0,   5,   0,   1,   0,   1,   0,   0,   0,0.00,20.0,   2,   2,   0,  10,   2,   5,   0,   0,   1,   0,1.00, 2.15,    1},
                 ;  {0,999,999,  30,  30,   1,   1,  10,   2,   1,   1,   2,999,999,  10,  10,   5,  30,   4,  10,   1,   1, 1.8,   1,1.00,12.99,  247},
                 ;  {0,-999,-999,   0,   0,   0,   0,   0,   1,   0,   0,   0,-999,-999,   0,   0,   0,   0,   0,   1,   0,   0, 0.2,   0,1.00,1.00,    0}};
                 ;  //|ÛÒÚ1 |ÛÒÚ2 |Á‡‰1|Á‡‰2|Ï‡ÒÍ|Á‚ÛÍ  |„ËÒÚ|Á‚ÛÍ |ÂÎ1 |ÂÎ2 |Â‰ËÁ | ÌÔË | ‚ÔË  |‰ÒÌÛ|‰Ò‚Û  |‚ÛÒ |‚·Ô‚|‰Ë‡Ô |‚‚ËÏ |Á‡Î1 |Á‡Î2 | Í‡Î |Á‡‚Û  |‚ÂÒ|‰‡Ú‡|‡‰ÂÒ|
                 ;  // Y_01,Y_02,Z_01,Z_02,P___,C___,A_01,A_02,A_03,A_04,A_05,A_06,A_07,A_08,A_09,A_10,A_11,A_12,A_13,A_14,A_15,A_16,A_17,A_18,A_19,Adres;
                 ;
                 ;eeprom char ee_point=3;
                 ;eeprom int crceep = 0x0000;  //   ‡Ò˜∏ÚÌÓÂ crc     5ˇ ÒÚÓÍ‡ ‰Ó 1ff, 2 ·‡ÈÚ‡ Ì‡˜ËÌ‡ˇ ÒÓ 2„Ó ·‡ÈÚ‡ ‚ ÒÚÓÍÂ (ÔÓÒÎÂ  1001B000)
                 ;eeprom const int crcstatic = 0x70bb;//0x45cb;
                 ;eeprom char crc1digit = 3, crc2digit = 'c', crc3digit =2 , crc4digit = 1;
                 ;//eeprom char smth[9];
                 ;
                 ;//eeprom const
                 ;char mode,point,work_point,save_point;
                 ;#include <function_led.h>
                 _led_calk:
                 ;	a -> Y+0
000316 81e8      	LD   R30,Y
000317 30e0      	CPI  R30,0
000318 f411      	BRNE _0x6F
000319 e4e0      	LDI  R30,LOW(64)
00031a c075      	RJMP _0x397
                 _0x6F:
00031b 30e1      	CPI  R30,LOW(0x1)
00031c f411      	BRNE _0x70
00031d e7e9      	LDI  R30,LOW(121)
00031e c071      	RJMP _0x397
                 _0x70:
00031f 30e2      	CPI  R30,LOW(0x2)
000320 f411      	BRNE _0x71
000321 e2e4      	LDI  R30,LOW(36)
000322 c06d      	RJMP _0x397
                 _0x71:
000323 30e3      	CPI  R30,LOW(0x3)
000324 f411      	BRNE _0x72
000325 e3e0      	LDI  R30,LOW(48)
000326 c069      	RJMP _0x397
                 _0x72:
000327 30e4      	CPI  R30,LOW(0x4)
000328 f411      	BRNE _0x73
000329 e1e9      	LDI  R30,LOW(25)
00032a c065      	RJMP _0x397
                 _0x73:
00032b 30e5      	CPI  R30,LOW(0x5)
00032c f411      	BRNE _0x74
00032d e1e2      	LDI  R30,LOW(18)
00032e c061      	RJMP _0x397
                 _0x74:
00032f 30e6      	CPI  R30,LOW(0x6)
000330 f411      	BRNE _0x75
000331 e0e2      	LDI  R30,LOW(2)
000332 c05d      	RJMP _0x397
                 _0x75:
000333 30e7      	CPI  R30,LOW(0x7)
000334 f411      	BRNE _0x76
000335 e7e8      	LDI  R30,LOW(120)
000336 c059      	RJMP _0x397
                 _0x76:
000337 30e8      	CPI  R30,LOW(0x8)
000338 f411      	BRNE _0x77
000339 e0e0      	LDI  R30,LOW(0)
00033a c055      	RJMP _0x397
                 _0x77:
00033b 30e9      	CPI  R30,LOW(0x9)
00033c f411      	BRNE _0x78
00033d e1e0      	LDI  R30,LOW(16)
00033e c051      	RJMP _0x397
                 _0x78:
00033f 32e0      	CPI  R30,LOW(0x20)
000340 f411      	BRNE _0x79
000341 e7ef      	LDI  R30,LOW(127)
000342 c04d      	RJMP _0x397
                 _0x79:
000343 35ef      	CPI  R30,LOW(0x5F)
000344 f411      	BRNE _0x7A
000345 e7e7      	LDI  R30,LOW(119)
000346 c049      	RJMP _0x397
                 _0x7A:
000347 3de3      	CPI  R30,LOW(0xD3)
000348 f411      	BRNE _0x7B
000349 e1e1      	LDI  R30,LOW(17)
00034a c045      	RJMP _0x397
                 _0x7B:
00034b 36e1      	CPI  R30,LOW(0x61)
00034c f411      	BRNE _0x7C
00034d e0e8      	LDI  R30,LOW(8)
00034e c041      	RJMP _0x397
                 _0x7C:
00034f 3eef      	CPI  R30,LOW(0xEF)
000350 f411      	BRNE _0x7D
000351 e4e8      	LDI  R30,LOW(72)
000352 c03d      	RJMP _0x397
                 _0x7D:
000353 36e3      	CPI  R30,LOW(0x63)
000354 f411      	BRNE _0x7E
000355 e4e6      	LDI  R30,LOW(70)
000356 c039      	RJMP _0x397
                 _0x7E:
000357 37e0      	CPI  R30,LOW(0x70)
000358 f411      	BRNE _0x7F
000359 e0ec      	LDI  R30,LOW(12)
00035a c035      	RJMP _0x397
                 _0x7F:
00035b 32ed      	CPI  R30,LOW(0x2D)
00035c f411      	BRNE _0x80
00035d e3ef      	LDI  R30,LOW(63)
00035e c031      	RJMP _0x397
                 _0x80:
00035f 37e2      	CPI  R30,LOW(0x72)
000360 f411      	BRNE _0x81
000361 e2ef      	LDI  R30,LOW(47)
000362 c02d      	RJMP _0x397
                 _0x81:
000363 37e4      	CPI  R30,LOW(0x74)
000364 f411      	BRNE _0x82
000365 e0e7      	LDI  R30,LOW(7)
000366 c029      	RJMP _0x397
                 _0x82:
000367 36e2      	CPI  R30,LOW(0x62)
000368 f411      	BRNE _0x83
000369 e0e3      	LDI  R30,LOW(3)
00036a c025      	RJMP _0x397
                 _0x83:
00036b 36e4      	CPI  R30,LOW(0x64)
00036c f411      	BRNE _0x84
00036d e2e1      	LDI  R30,LOW(33)
00036e c021      	RJMP _0x397
                 _0x84:
00036f 36e5      	CPI  R30,LOW(0x65)
000370 f411      	BRNE _0x85
000371 e0e6      	LDI  R30,LOW(6)
000372 c01d      	RJMP _0x397
                 _0x85:
000373 36e6      	CPI  R30,LOW(0x66)
000374 f411      	BRNE _0x86
000375 e0ee      	LDI  R30,LOW(14)
000376 c019      	RJMP _0x397
                 _0x86:
000377 36e7      	CPI  R30,LOW(0x67)
000378 f411      	BRNE _0x87
000379 e4e2      	LDI  R30,LOW(66)
00037a c015      	RJMP _0x397
                 _0x87:
00037b 36e8      	CPI  R30,LOW(0x68)
00037c f411      	BRNE _0x88
00037d e6e5      	LDI  R30,LOW(101)
00037e c011      	RJMP _0x397
                 _0x88:
00037f 36eb      	CPI  R30,LOW(0x6B)
000380 f411      	BRNE _0x89
000381 e0ea      	LDI  R30,LOW(10)
000382 c00d      	RJMP _0x397
                 _0x89:
000383 36e9      	CPI  R30,LOW(0x69)
000384 f411      	BRNE _0x8A
000385 e4ef      	LDI  R30,LOW(79)
000386 c009      	RJMP _0x397
                 _0x8A:
000387 36ec      	CPI  R30,LOW(0x6C)
000388 f411      	BRNE _0x8B
000389 e4e7      	LDI  R30,LOW(71)
00038a c005      	RJMP _0x397
                 _0x8B:
00038b 37e6      	CPI  R30,LOW(0x76)
00038c f411      	BRNE _0x8D
00038d e4e1      	LDI  R30,LOW(65)
00038e c001      	RJMP _0x397
                 _0x8D:
00038f e7e2      	LDI  R30,LOW(114)
                 _0x397:
000390 83e8      	ST   Y,R30
000391 c13e      	RJMP _0x20A0006
                 _set_led_on:
000392 931a      	ST   -Y,R17
                 ;	a -> Y+8
                 ;	b -> Y+7
                 ;	c -> Y+6
                 ;	d -> Y+5
                 ;	p1 -> Y+4
                 ;	p2 -> Y+3
                 ;	p3 -> Y+2
                 ;	p4 -> Y+1
                 ;	i -> R17
000393 fe43      	SBRS R4,3
000394 c002      	RJMP _0x8E
000395 e0e0      	LDI  R30,LOW(0)
000396 83ed      	STD  Y+5,R30
                 _0x8E:
000397 81ec      	LDD  R30,Y+4
000398 30e0      	CPI  R30,0
000399 f421      	BRNE _0x8F
00039a 9110 01e1 	LDS  R17,_led_byte
00039c 6810      	ORI  R17,LOW(128)
00039d c003      	RJMP _0x398
                 _0x8F:
00039e 9110 01e1 	LDS  R17,_led_byte
0003a0 771f      	ANDI R17,LOW(127)
                 _0x398:
0003a1 9310 01e1 	STS  _led_byte,R17
0003a3 81eb      	LDD  R30,Y+3
0003a4 30e0      	CPI  R30,0
0003a5 f421      	BRNE _0x91
                +
0003a6 9110 01e3+LDS R17 , _led_byte + ( 2 )
                 	__GETBRMN 17,_led_byte,2
0003a8 6810      	ORI  R17,LOW(128)
0003a9 c003      	RJMP _0x399
                 _0x91:
                +
0003aa 9110 01e3+LDS R17 , _led_byte + ( 2 )
                 	__GETBRMN 17,_led_byte,2
0003ac 771f      	ANDI R17,LOW(127)
                 _0x399:
                +
0003ad 9310 01e3+STS _led_byte + ( 2 ) , R17
                 	__PUTBMRN _led_byte,2,17
0003af 81ea      	LDD  R30,Y+2
0003b0 30e0      	CPI  R30,0
0003b1 f421      	BRNE _0x93
                +
0003b2 9110 01e5+LDS R17 , _led_byte + ( 4 )
                 	__GETBRMN 17,_led_byte,4
0003b4 6810      	ORI  R17,LOW(128)
0003b5 c003      	RJMP _0x39A
                 _0x93:
                +
0003b6 9110 01e5+LDS R17 , _led_byte + ( 4 )
                 	__GETBRMN 17,_led_byte,4
0003b8 771f      	ANDI R17,LOW(127)
                 _0x39A:
                +
0003b9 9310 01e5+STS _led_byte + ( 4 ) , R17
                 	__PUTBMRN _led_byte,4,17
0003bb 81e9      	LDD  R30,Y+1
0003bc 30e0      	CPI  R30,0
0003bd f421      	BRNE _0x95
                +
0003be 9110 01e7+LDS R17 , _led_byte + ( 6 )
                 	__GETBRMN 17,_led_byte,6
0003c0 6810      	ORI  R17,LOW(128)
0003c1 c003      	RJMP _0x39B
                 _0x95:
                +
0003c2 9110 01e7+LDS R17 , _led_byte + ( 6 )
                 	__GETBRMN 17,_led_byte,6
0003c4 771f      	ANDI R17,LOW(127)
                 _0x39B:
                +
0003c5 9310 01e7+STS _led_byte + ( 6 ) , R17
                 	__PUTBMRN _led_byte,6,17
0003c7 85a8      	LDD  R26,Y+8
0003c8 30a0      	CPI  R26,LOW(0x0)
0003c9 f429      	BRNE _0x98
0003ca e0a0      	LDI  R26,0
0003cb fc43      	SBRC R4,3
0003cc e0a1      	LDI  R26,1
0003cd 30a0      	CPI  R26,LOW(0x0)
0003ce f009      	BREQ _0x99
                 _0x98:
0003cf c004      	RJMP _0x97
                 _0x99:
                +
0003d0 91e0 01e9+LDS R30 , _led_byte + ( 8 )
                 	__GETB1MN _led_byte,8
0003d2 60e1      	ORI  R30,1
0003d3 c003      	RJMP _0x39C
                 _0x97:
                +
0003d4 91e0 01e9+LDS R30 , _led_byte + ( 8 )
                 	__GETB1MN _led_byte,8
0003d6 7fee      	ANDI R30,0xFE
                 _0x39C:
                +
0003d7 93e0 01e9+STS _led_byte + ( 8 ) , R30
                 	__PUTB1MN _led_byte,8
0003d9 81af      	LDD  R26,Y+7
0003da 30a0      	CPI  R26,LOW(0x0)
0003db f429      	BRNE _0x9C
0003dc e0a0      	LDI  R26,0
0003dd fc45      	SBRC R4,5
0003de e0a1      	LDI  R26,1
0003df 30a0      	CPI  R26,LOW(0x0)
0003e0 f009      	BREQ _0x9D
                 _0x9C:
0003e1 c004      	RJMP _0x9B
                 _0x9D:
                +
0003e2 91e0 01e9+LDS R30 , _led_byte + ( 8 )
                 	__GETB1MN _led_byte,8
0003e4 60e2      	ORI  R30,2
0003e5 c003      	RJMP _0x39D
                 _0x9B:
                +
0003e6 91e0 01e9+LDS R30 , _led_byte + ( 8 )
                 	__GETB1MN _led_byte,8
0003e8 7fed      	ANDI R30,0xFD
                 _0x39D:
                +
0003e9 93e0 01e9+STS _led_byte + ( 8 ) , R30
                 	__PUTB1MN _led_byte,8
0003eb 81ae      	LDD  R26,Y+6
0003ec 30a0      	CPI  R26,LOW(0x0)
0003ed f429      	BRNE _0xA0
0003ee e0a0      	LDI  R26,0
0003ef fc44      	SBRC R4,4
0003f0 e0a1      	LDI  R26,1
0003f1 30a0      	CPI  R26,LOW(0x0)
0003f2 f009      	BREQ _0xA1
                 _0xA0:
0003f3 c004      	RJMP _0x9F
                 _0xA1:
                +
0003f4 91e0 01e9+LDS R30 , _led_byte + ( 8 )
                 	__GETB1MN _led_byte,8
0003f6 60e4      	ORI  R30,4
0003f7 c003      	RJMP _0x39E
                 _0x9F:
                +
0003f8 91e0 01e9+LDS R30 , _led_byte + ( 8 )
                 	__GETB1MN _led_byte,8
0003fa 7feb      	ANDI R30,0xFB
                 _0x39E:
                +
0003fb 93e0 01e9+STS _led_byte + ( 8 ) , R30
                 	__PUTB1MN _led_byte,8
0003fd 81ed      	LDD  R30,Y+5
0003fe 30e0      	CPI  R30,0
0003ff f421      	BRNE _0xA3
                +
000400 91e0 01e9+LDS R30 , _led_byte + ( 8 )
                 	__GETB1MN _led_byte,8
000402 60e8      	ORI  R30,8
000403 c003      	RJMP _0x39F
                 _0xA3:
                +
000404 91e0 01e9+LDS R30 , _led_byte + ( 8 )
                 	__GETB1MN _led_byte,8
000406 7fe7      	ANDI R30,0XF7
                 _0x39F:
                +
000407 93e0 01e9+STS _led_byte + ( 8 ) , R30
                 	__PUTB1MN _led_byte,8
000409 c073      	RJMP _0x20A0008
                 _set_led_off:
00040a 931a      	ST   -Y,R17
                 ;	a -> Y+8
                 ;	b -> Y+7
                 ;	c -> Y+6
                 ;	d -> Y+5
                 ;	p1 -> Y+4
                 ;	p2 -> Y+3
                 ;	p3 -> Y+2
                 ;	p4 -> Y+1
                 ;	i -> R17
00040b fe43      	SBRS R4,3
00040c c002      	RJMP _0xA5
00040d e0e0      	LDI  R30,LOW(0)
00040e 83ed      	STD  Y+5,R30
                 _0xA5:
00040f 81ec      	LDD  R30,Y+4
000410 30e0      	CPI  R30,0
000411 f421      	BRNE _0xA6
                +
000412 9110 01e2+LDS R17 , _led_byte + ( 1 )
                 	__GETBRMN 17,_led_byte,1
000414 6810      	ORI  R17,LOW(128)
000415 c003      	RJMP _0x3A0
                 _0xA6:
                +
000416 9110 01e2+LDS R17 , _led_byte + ( 1 )
                 	__GETBRMN 17,_led_byte,1
000418 771f      	ANDI R17,LOW(127)
                 _0x3A0:
                +
000419 9310 01e2+STS _led_byte + ( 1 ) , R17
                 	__PUTBMRN _led_byte,1,17
00041b 81eb      	LDD  R30,Y+3
00041c 30e0      	CPI  R30,0
00041d f421      	BRNE _0xA8
                +
00041e 9110 01e4+LDS R17 , _led_byte + ( 3 )
                 	__GETBRMN 17,_led_byte,3
000420 6810      	ORI  R17,LOW(128)
000421 c003      	RJMP _0x3A1
                 _0xA8:
                +
000422 9110 01e4+LDS R17 , _led_byte + ( 3 )
                 	__GETBRMN 17,_led_byte,3
000424 771f      	ANDI R17,LOW(127)
                 _0x3A1:
                +
000425 9310 01e4+STS _led_byte + ( 3 ) , R17
                 	__PUTBMRN _led_byte,3,17
000427 81ea      	LDD  R30,Y+2
000428 30e0      	CPI  R30,0
000429 f421      	BRNE _0xAA
                +
00042a 9110 01e6+LDS R17 , _led_byte + ( 5 )
                 	__GETBRMN 17,_led_byte,5
00042c 6810      	ORI  R17,LOW(128)
00042d c003      	RJMP _0x3A2
                 _0xAA:
                +
00042e 9110 01e6+LDS R17 , _led_byte + ( 5 )
                 	__GETBRMN 17,_led_byte,5
000430 771f      	ANDI R17,LOW(127)
                 _0x3A2:
                +
000431 9310 01e6+STS _led_byte + ( 5 ) , R17
                 	__PUTBMRN _led_byte,5,17
000433 81e9      	LDD  R30,Y+1
000434 30e0      	CPI  R30,0
000435 f421      	BRNE _0xAC
                +
000436 9110 01e8+LDS R17 , _led_byte + ( 7 )
                 	__GETBRMN 17,_led_byte,7
000438 6810      	ORI  R17,LOW(128)
000439 c003      	RJMP _0x3A3
                 _0xAC:
                +
00043a 9110 01e8+LDS R17 , _led_byte + ( 7 )
                 	__GETBRMN 17,_led_byte,7
00043c 771f      	ANDI R17,LOW(127)
                 _0x3A3:
                +
00043d 9310 01e8+STS _led_byte + ( 7 ) , R17
                 	__PUTBMRN _led_byte,7,17
00043f 85a8      	LDD  R26,Y+8
000440 30a0      	CPI  R26,LOW(0x0)
000441 f429      	BRNE _0xAF
000442 e0a0      	LDI  R26,0
000443 fc43      	SBRC R4,3
000444 e0a1      	LDI  R26,1
000445 30a0      	CPI  R26,LOW(0x0)
000446 f009      	BREQ _0xB0
                 _0xAF:
000447 c004      	RJMP _0xAE
                 _0xB0:
                +
000448 91e0 01ea+LDS R30 , _led_byte + ( 9 )
                 	__GETB1MN _led_byte,9
00044a 60e1      	ORI  R30,1
00044b c003      	RJMP _0x3A4
                 _0xAE:
                +
00044c 91e0 01ea+LDS R30 , _led_byte + ( 9 )
                 	__GETB1MN _led_byte,9
00044e 7fee      	ANDI R30,0xFE
                 _0x3A4:
                +
00044f 93e0 01ea+STS _led_byte + ( 9 ) , R30
                 	__PUTB1MN _led_byte,9
000451 81af      	LDD  R26,Y+7
000452 30a0      	CPI  R26,LOW(0x0)
000453 f419      	BRNE _0xB3
000454 940e 1863 	CALL SUBOPT_0xA
000456 f009      	BREQ _0xB4
                 _0xB3:
000457 c004      	RJMP _0xB2
                 _0xB4:
                +
000458 91e0 01ea+LDS R30 , _led_byte + ( 9 )
                 	__GETB1MN _led_byte,9
00045a 60e2      	ORI  R30,2
00045b c003      	RJMP _0x3A5
                 _0xB2:
                +
00045c 91e0 01ea+LDS R30 , _led_byte + ( 9 )
                 	__GETB1MN _led_byte,9
00045e 7fed      	ANDI R30,0xFD
                 _0x3A5:
                +
00045f 93e0 01ea+STS _led_byte + ( 9 ) , R30
                 	__PUTB1MN _led_byte,9
000461 81ae      	LDD  R26,Y+6
000462 30a0      	CPI  R26,LOW(0x0)
000463 f419      	BRNE _0xB7
000464 940e 1868 	CALL SUBOPT_0xB
000466 f009      	BREQ _0xB8
                 _0xB7:
000467 c004      	RJMP _0xB6
                 _0xB8:
                +
000468 91e0 01ea+LDS R30 , _led_byte + ( 9 )
                 	__GETB1MN _led_byte,9
00046a 60e4      	ORI  R30,4
00046b c003      	RJMP _0x3A6
                 _0xB6:
                +
00046c 91e0 01ea+LDS R30 , _led_byte + ( 9 )
                 	__GETB1MN _led_byte,9
00046e 7feb      	ANDI R30,0xFB
                 _0x3A6:
                +
00046f 93e0 01ea+STS _led_byte + ( 9 ) , R30
                 	__PUTB1MN _led_byte,9
000471 81ed      	LDD  R30,Y+5
000472 30e0      	CPI  R30,0
000473 f421      	BRNE _0xBA
                +
000474 91e0 01ea+LDS R30 , _led_byte + ( 9 )
                 	__GETB1MN _led_byte,9
000476 60e8      	ORI  R30,8
000477 c003      	RJMP _0x3A7
                 _0xBA:
                +
000478 91e0 01ea+LDS R30 , _led_byte + ( 9 )
                 	__GETB1MN _led_byte,9
00047a 7fe7      	ANDI R30,0XF7
                 _0x3A7:
                +
00047b 93e0 01ea+STS _led_byte + ( 9 ) , R30
                 	__PUTB1MN _led_byte,9
                 _0x20A0008:
00047d 8118      	LDD  R17,Y+0
00047e 9629      	ADIW R28,9
00047f 9508      	RET
                 _set_digit_on:
000480 931a      	ST   -Y,R17
                 ;	a -> Y+4
                 ;	b -> Y+3
                 ;	c -> Y+2
                 ;	d -> Y+1
                 ;	i -> R17
000481 9110 01e1 	LDS  R17,_led_byte
000483 940e 186d 	CALL SUBOPT_0xC
000485 9310 01e1 	STS  _led_byte,R17
                +
000487 9110 01e3+LDS R17 , _led_byte + ( 2 )
                 	__GETBRMN 17,_led_byte,2
000489 940e 1874 	CALL SUBOPT_0xD
                +
00048b 9310 01e3+STS _led_byte + ( 2 ) , R17
                 	__PUTBMRN _led_byte,2,17
                +
00048d 9110 01e5+LDS R17 , _led_byte + ( 4 )
                 	__GETBRMN 17,_led_byte,4
00048f 940e 187b 	CALL SUBOPT_0xE
                +
000491 9310 01e5+STS _led_byte + ( 4 ) , R17
                 	__PUTBMRN _led_byte,4,17
                +
000493 9110 01e7+LDS R17 , _led_byte + ( 6 )
                 	__GETBRMN 17,_led_byte,6
000495 940e 1882 	CALL SUBOPT_0xF
                +
000497 9310 01e7+STS _led_byte + ( 6 ) , R17
                 	__PUTBMRN _led_byte,6,17
000499 c019      	RJMP _0x20A0007
                 _set_digit_off:
00049a 931a      	ST   -Y,R17
                 ;	a -> Y+4
                 ;	b -> Y+3
                 ;	c -> Y+2
                 ;	d -> Y+1
                 ;	i -> R17
                +
00049b 9110 01e2+LDS R17 , _led_byte + ( 1 )
                 	__GETBRMN 17,_led_byte,1
00049d 940e 186d 	CALL SUBOPT_0xC
                +
00049f 9310 01e2+STS _led_byte + ( 1 ) , R17
                 	__PUTBMRN _led_byte,1,17
                +
0004a1 9110 01e4+LDS R17 , _led_byte + ( 3 )
                 	__GETBRMN 17,_led_byte,3
0004a3 940e 1874 	CALL SUBOPT_0xD
                +
0004a5 9310 01e4+STS _led_byte + ( 3 ) , R17
                 	__PUTBMRN _led_byte,3,17
                +
0004a7 9110 01e6+LDS R17 , _led_byte + ( 5 )
                 	__GETBRMN 17,_led_byte,5
0004a9 940e 187b 	CALL SUBOPT_0xE
                +
0004ab 9310 01e6+STS _led_byte + ( 5 ) , R17
                 	__PUTBMRN _led_byte,5,17
                +
0004ad 9110 01e8+LDS R17 , _led_byte + ( 7 )
                 	__GETBRMN 17,_led_byte,7
0004af 940e 1882 	CALL SUBOPT_0xF
                +
0004b1 9310 01e8+STS _led_byte + ( 7 ) , R17
                 	__PUTBMRN _led_byte,7,17
                 _0x20A0007:
0004b3 8118      	LDD  R17,Y+0
0004b4 9625      	ADIW R28,5
0004b5 9508      	RET
                 ;
                 ;char ed,des,sot,tis,count_filter,count_filter1,i,count_key,count_key1;
                 ;long filter_value;
                 ;unsigned int adc_buf;
                 ;flash  int crctable[256]= {
                 ;        0x0000, 0xC1C0, 0x81C1, 0x4001, 0x01C3, 0xC003, 0x8002, 0x41C2, 0x01C6, 0xC006,
                 ;        0x8007, 0x41C7, 0x0005, 0xC1C5, 0x81C4, 0x4004, 0x01CC, 0xC00C, 0x800D, 0x41CD,
                 ;        0x000F, 0xC1CF, 0x81CE, 0x400E, 0x000A, 0xC1CA, 0x81CB, 0x400B, 0x01C9, 0xC009,
                 ;        0x8008, 0x41C8, 0x01D8, 0xC018, 0x8019, 0x41D9, 0x001B, 0xC1DB, 0x81DA, 0x401A,
                 ;        0x001E, 0xC1DE, 0x81DF, 0x401F, 0x01DD, 0xC01D, 0x801C, 0x41DC, 0x0014, 0xC1D4,
                 ;        0x81D5, 0x4015, 0x01D7, 0xC017, 0x8016, 0x41D6, 0x01D2, 0xC012, 0x8013, 0x41D3,
                 ;        0x0011, 0xC1D1, 0x81D0, 0x4010, 0x01F0, 0xC030, 0x8031, 0x41F1, 0x0033, 0xC1F3,
                 ;        0x81F2, 0x4032, 0x0036, 0xC1F6, 0x81F7, 0x4037, 0x01F5, 0xC035, 0x8034, 0x41F4,
                 ;        0x003C, 0xC1FC, 0x81FD, 0x403D, 0x01FF, 0xC03F, 0x803E, 0x41FE, 0x01FA, 0xC03A,
                 ;        0x803B, 0x41FB, 0x0039, 0xC1F9, 0x81F8, 0x4038, 0x0028, 0xC1E8, 0x81E9, 0x4029,
                 ;        0x01EB, 0xC02B, 0x802A, 0x41EA, 0x01EE, 0xC02E, 0x802F, 0x41EF, 0x002D, 0xC1ED,
                 ;        0x81EC, 0x402C, 0x01E4, 0xC024, 0x8025, 0x41E5, 0x0027, 0xC1E7, 0x81E6, 0x4026,
                 ;        0x0022, 0xC1E2, 0x81E3, 0x4023, 0x01E1, 0xC021, 0x8020, 0x41E0, 0x01A0, 0xC060,
                 ;        0x8061, 0x41A1, 0x0063, 0xC1A3, 0x81A2, 0x4062, 0x0066, 0xC1A6, 0x81A7, 0x4067,
                 ;        0x01A5, 0xC065, 0x8064, 0x41A4, 0x006C, 0xC1AC, 0x81AD, 0x406D, 0x01AF, 0xC06F,
                 ;        0x806E, 0x41AE, 0x01AA, 0xC06A, 0x806B, 0x41AB, 0x0069, 0xC1A9, 0x81A8, 0x4068,
                 ;        0x0078, 0xC1B8, 0x81B9, 0x4079, 0x01BB, 0xC07B, 0x807A, 0x41BA, 0x01BE, 0xC07E,
                 ;        0x807F, 0x41BF, 0x007D, 0xC1BD, 0x81BC, 0x407C, 0x01B4, 0xC074, 0x8075, 0x41B5,
                 ;        0x0077, 0xC1B7, 0x81B6, 0x4076, 0x0072, 0xC1B2, 0x81B3, 0x4073, 0x01B1, 0xC071,
                 ;        0x8070, 0x41B0, 0x0050, 0xC190, 0x8191, 0x4051, 0x0193, 0xC053, 0x8052, 0x4192,
                 ;        0x0196, 0xC056, 0x8057, 0x4197, 0x0055, 0xC195, 0x8194, 0x4054, 0x019C, 0xC05C,
                 ;	0x805D, 0x419D, 0x005F, 0xC19F, 0x819E, 0x405E, 0x005A, 0xC19A, 0x819B, 0x405B,
                 ;	0x0199, 0xC059, 0x8058, 0x4198, 0x0188, 0xC048, 0x8049, 0x4189, 0x004B, 0xC18B,
                 ;	0x818A, 0x404A, 0x004E, 0xC18E, 0x818F, 0x404F, 0x018D, 0xC04D, 0x804C, 0x418C,
                 ;	0x0044, 0xC184, 0x8185, 0x4045, 0x0187, 0xC047, 0x8046, 0x4186, 0x0182, 0xC042,
                 ;	0x8043, 0x4183, 0x0041, 0xC181, 0x8180, 0x4040
                 ;};
                 ;
                 ;void  CRC_update(unsigned char d)
                 ; 0000 00BA {
                 _CRC_update:
                 ; 0000 00BB   //unsigned char uindex;
                 ; 0000 00BC   //uindex = CRCHigh^d;
                 ; 0000 00BD   //CRCHigh=CRCLow^((int)crctable[uindex]>>8);
                 ; 0000 00BE   //CRCLow=crctable[uindex];
                 ; 0000 00BF   //crc = CRCHigh;
                 ; 0000 00C0   //crc = ((int)crc)<<8+CRCLow;
                 ; 0000 00C1   crc = crctable[((crc>>8)^d)&0xFF] ^ (crc<<8);
                 ;	d -> Y+0
0004b6 940e 1889 	CALL SUBOPT_0x10
0004b8 940e 1e9f 	CALL __ASRW8
0004ba 01df      	MOVW R26,R30
0004bb 81e8      	LD   R30,Y
0004bc e0f0      	LDI  R31,0
0004bd 27ae      	EOR  R26,R30
0004be 27bf      	EOR  R27,R31
0004bf efef      	LDI  R30,LOW(255)
0004c0 e0f0      	LDI  R31,HIGH(255)
0004c1 23ea      	AND  R30,R26
0004c2 23fb      	AND  R31,R27
0004c3 e5a4      	LDI  R26,LOW(_crctable*2)
0004c4 e0b0      	LDI  R27,HIGH(_crctable*2)
0004c5 0fee      	LSL  R30
0004c6 1fff      	ROL  R31
0004c7 0fea      	ADD  R30,R26
0004c8 1ffb      	ADC  R31,R27
0004c9 940e 1efd 	CALL __GETW2PF
0004cb 91f0 01f7 	LDS  R31,_crc
0004cd e0e0      	LDI  R30,LOW(0)
0004ce 940e 188e 	CALL SUBOPT_0x11
                 ; 0000 00C2 }
                 _0x20A0006:
0004d0 9621      	ADIW R28,1
0004d1 9508      	RET
                 ;void hex2dec(float x)		// ÔÓ‰ÔÓ„‡ÏÏ‡ ÔÂÓ·‡ÁÓ‚‡ÌËˇ ÍÓ‰‡ ‚ ASCII
                 ; 0000 00C4  	{				//
                 _hex2dec:
                 ; 0000 00C5  	char str[9],str1[9];
                 ; 0000 00C6  	signed char a,b;
                 ; 0000 00C7     char counter=0;
                 ; 0000 00C8  	if (x<-999) x=-999;
0004d2 9762      	SBIW R28,18
0004d3 940e 1f65 	CALL __SAVELOCR4
                 ;	x -> Y+22
                 ;	str -> Y+13
                 ;	str1 -> Y+4
                 ;	a -> R17
                 ;	b -> R16
                 ;	counter -> R19
0004d5 e030      	LDI  R19,0
                +
0004d6 89ae     +LDD R26 , Y + 22
0004d7 89bf     +LDD R27 , Y + 22 + 1
0004d8 8d88     +LDD R24 , Y + 22 + 2
0004d9 8d99     +LDD R25 , Y + 22 + 3
                 	__GETD2S 22
                +
0004da e0e0     +LDI R30 , LOW ( 0xC479C000 )
0004db ecf0     +LDI R31 , HIGH ( 0xC479C000 )
0004dc e769     +LDI R22 , BYTE3 ( 0xC479C000 )
0004dd ec74     +LDI R23 , BYTE4 ( 0xC479C000 )
                 	__GETD1N 0xC479C000
0004de 940e 1e69 	CALL __CMPF12
0004e0 f420      	BRSH _0xBC
                +
0004e1 8bee     +STD Y + 22 , R30
0004e2 8bff     +STD Y + 22 + 1 , R31
0004e3 8f68     +STD Y + 22 + 2 , R22
0004e4 8f79     +STD Y + 22 + 3 , R23
                 	__PUTD1S 22
                 ; 0000 00C9  	if (x>999) x=999;
                 _0xBC:
                +
0004e5 89ae     +LDD R26 , Y + 22
0004e6 89bf     +LDD R27 , Y + 22 + 1
0004e7 8d88     +LDD R24 , Y + 22 + 2
0004e8 8d99     +LDD R25 , Y + 22 + 3
                 	__GETD2S 22
                +
0004e9 e0e0     +LDI R30 , LOW ( 0x4479C000 )
0004ea ecf0     +LDI R31 , HIGH ( 0x4479C000 )
0004eb e769     +LDI R22 , BYTE3 ( 0x4479C000 )
0004ec e474     +LDI R23 , BYTE4 ( 0x4479C000 )
                 	__GETD1N 0x4479C000
0004ed 940e 1e69 	CALL __CMPF12
0004ef f009      	BREQ PC+2
0004f0 f410      	BRCC PC+3
0004f1 940c 04f7 	JMP  _0xBD
                +
0004f3 8bee     +STD Y + 22 , R30
0004f4 8bff     +STD Y + 22 + 1 , R31
0004f5 8f68     +STD Y + 22 + 2 , R22
0004f6 8f79     +STD Y + 22 + 3 , R23
                 	__PUTD1S 22
                 ; 0000 00CA  	ftoa(x,5,str1);
                 _0xBD:
                +
0004f7 89ee     +LDD R30 , Y + 22
0004f8 89ff     +LDD R31 , Y + 22 + 1
0004f9 8d68     +LDD R22 , Y + 22 + 2
0004fa 8d79     +LDD R23 , Y + 22 + 3
                 	__GETD1S 22
0004fb 940e 1f0f 	CALL __PUTPARD1
0004fd e0e5      	LDI  R30,LOW(5)
0004fe 93ea      	ST   -Y,R30
0004ff 01fe      	MOVW R30,R28
000500 9639      	ADIW R30,9
000501 93fa      	ST   -Y,R31
000502 93ea      	ST   -Y,R30
000503 940e 170b 	CALL _ftoa
                 ; 0000 00CB //    for(a=0; a < 5; a++)
                 ; 0000 00CC //    {
                 ; 0000 00CD //
                 ; 0000 00CE //        if(str1[a]==0x2e)
                 ; 0000 00CF //        {
                 ; 0000 00D0 //           // point = a;
                 ; 0000 00D1 //        }
                 ; 0000 00D2 //        else
                 ; 0000 00D3 //        {
                 ; 0000 00D4 //            if(counter==0)
                 ; 0000 00D5 //            {
                 ; 0000 00D6 //                if(x<0)
                 ; 0000 00D7 //                   tis='-';
                 ; 0000 00D8 //                else
                 ; 0000 00D9 //                    tis = str1[a]-0x30;
                 ; 0000 00DA //            }
                 ; 0000 00DB //            else if(counter==1)
                 ; 0000 00DC //            {
                 ; 0000 00DD //                sot =  str1[a]-0x30;
                 ; 0000 00DE //            }
                 ; 0000 00DF //            else if(counter==2)
                 ; 0000 00E0 //            {
                 ; 0000 00E1 //                des =  str1[a]-0x30;
                 ; 0000 00E2 //            }
                 ; 0000 00E3 //            else if(counter==3)
                 ; 0000 00E4 //            {
                 ; 0000 00E5 //                ed =  str1[a]-0x30;
                 ; 0000 00E6 //            }
                 ; 0000 00E7 //            counter++;
                 ; 0000 00E8 //        }
                 ; 0000 00E9 //
                 ; 0000 00EA //    }
                 ; 0000 00EB  	for (a=0;a<9;a++)
000505 e010      	LDI  R17,LOW(0)
                 _0xBF:
000506 3019      	CPI  R17,9
000507 f44c      	BRGE _0xC0
                 ; 0000 00EC     {
                 ; 0000 00ED         if (str1[a]=='.')
000508 940e 1860 	CALL SUBOPT_0x9
00050a 940e 1895 	CALL SUBOPT_0x12
00050c 91ac      	LD   R26,X
00050d 32ae      	CPI  R26,LOW(0x2E)
00050e f011      	BREQ _0xC2
                 ; 0000 00EE             goto p1;
                 ; 0000 00EF     }
00050f 5f1f      	SUBI R17,-1
000510 cff5      	RJMP _0xBF
                 _0xC0:
                 ; 0000 00F0 p1:
                 _0xC2:
                 ; 0000 00F1         b=4;
000511 e004      	LDI  R16,LOW(4)
                 ; 0000 00F2         while ((a>=0)&&(b>=0))
                 _0xC3:
000512 3010      	CPI  R17,0
000513 f014      	BRLT _0xC6
000514 3000      	CPI  R16,0
000515 f40c      	BRGE _0xC7
                 _0xC6:
000516 c00f      	RJMP _0xC5
                 _0xC7:
                 ; 0000 00F3         {
                 ; 0000 00F4             str[b]=str1[a];
000517 940e 189a 	CALL SUBOPT_0x13
000519 0fea      	ADD  R30,R26
00051a 1ffb      	ADC  R31,R27
00051b 010f      	MOVW R0,R30
00051c 940e 1860 	CALL SUBOPT_0x9
00051e 940e 1895 	CALL SUBOPT_0x12
000520 91ec      	LD   R30,X
000521 01d0      	MOVW R26,R0
000522 93ec      	ST   X,R30
                 ; 0000 00F5             a--;
000523 5011      	SUBI R17,1
                 ; 0000 00F6             b--;
000524 5001      	SUBI R16,1
                 ; 0000 00F7         }
000525 cfec      	RJMP _0xC3
                 _0xC5:
                 ; 0000 00F8         a=3-b;
000526 e0e3      	LDI  R30,LOW(3)
000527 1be0      	SUB  R30,R16
000528 2f1e      	MOV  R17,R30
                 ; 0000 00F9         while (b>=0)
                 _0xC8:
000529 3000      	CPI  R16,0
00052a f044      	BRLT _0xCA
                 ; 0000 00FA         {
                 ; 0000 00FB             str[b]='0';
00052b 940e 189a 	CALL SUBOPT_0x13
00052d 0fae      	ADD  R26,R30
00052e 1fbf      	ADC  R27,R31
00052f e3e0      	LDI  R30,LOW(48)
000530 93ec      	ST   X,R30
                 ; 0000 00FC             b--;
000531 5001      	SUBI R16,1
                 ; 0000 00FD         }
000532 cff6      	RJMP _0xC8
                 _0xCA:
                 ; 0000 00FE         b=4;
000533 e004      	LDI  R16,LOW(4)
                 ; 0000 00FF         while ((a<9)&&(b<9))
                 _0xCB:
000534 3019      	CPI  R17,9
000535 f414      	BRGE _0xCE
000536 3009      	CPI  R16,9
000537 f00c      	BRLT _0xCF
                 _0xCE:
000538 c00f      	RJMP _0xCD
                 _0xCF:
                 ; 0000 0100         {
                 ; 0000 0101             str[b]=str1[a];
000539 940e 189a 	CALL SUBOPT_0x13
00053b 0fea      	ADD  R30,R26
00053c 1ffb      	ADC  R31,R27
00053d 010f      	MOVW R0,R30
00053e 940e 1860 	CALL SUBOPT_0x9
000540 940e 1895 	CALL SUBOPT_0x12
000542 91ec      	LD   R30,X
000543 01d0      	MOVW R26,R0
000544 93ec      	ST   X,R30
                 ; 0000 0102             a++;
000545 5f1f      	SUBI R17,-1
                 ; 0000 0103             b++;
000546 5f0f      	SUBI R16,-1
                 ; 0000 0104         }
000547 cfec      	RJMP _0xCB
                 _0xCD:
                 ; 0000 0105         while (b<9)
                 _0xD0:
000548 3009      	CPI  R16,9
000549 f444      	BRGE _0xD2
                 ; 0000 0106          {
                 ; 0000 0107             str[b]='0';
00054a 940e 189a 	CALL SUBOPT_0x13
00054c 0fae      	ADD  R26,R30
00054d 1fbf      	ADC  R27,R31
00054e e3e0      	LDI  R30,LOW(48)
00054f 93ec      	ST   X,R30
                 ; 0000 0108             b++;
000550 5f0f      	SUBI R16,-1
                 ; 0000 0109          }
000551 cff6      	RJMP _0xD0
                 _0xD2:
                 ; 0000 010A  	if (point==1)
000552 91a0 01fa 	LDS  R26,_point
000554 30a1      	CPI  R26,LOW(0x1)
000555 f539      	BRNE _0xD3
                 ; 0000 010B  	        {
                 ; 0000 010C                 if (str[0]=='-') tis='-';
000556 85ad      	LDD  R26,Y+13
000557 32ad      	CPI  R26,LOW(0x2D)
000558 f411      	BRNE _0xD4
000559 e2ed      	LDI  R30,LOW(45)
00055a c007      	RJMP _0x3A8
                 ; 0000 010D                 else if (str[0]==0)
                 _0xD4:
00055b 85ed      	LDD  R30,Y+13
00055c 30e0      	CPI  R30,0
00055d f411      	BRNE _0xD6
                 ; 0000 010E                     tis=0;
00055e e0e0      	LDI  R30,LOW(0)
00055f c002      	RJMP _0x3A8
                 ; 0000 010F                 else
                 _0xD6:
                 ; 0000 0110                     tis=str[0]-0x30;
000560 85ed      	LDD  R30,Y+13
000561 53e0      	SUBI R30,LOW(48)
                 _0x3A8:
000562 93e0 01ff 	STS  _tis,R30
                 ; 0000 0111                 sot=str[1]-0x30;
000564 85ee      	LDD  R30,Y+14
000565 53e0      	SUBI R30,LOW(48)
000566 93e0 01fe 	STS  _sot,R30
                 ; 0000 0112                 des=str[2]-0x30;
000568 85ef      	LDD  R30,Y+15
000569 53e0      	SUBI R30,LOW(48)
00056a 93e0 01fd 	STS  _des,R30
                 ; 0000 0113                 ed=str[3]-0x30;
00056c 89e8      	LDD  R30,Y+16
00056d 940e 189f 	CALL SUBOPT_0x14
                 ; 0000 0114                 if (tis==0)
00056f f469      	BRNE _0xD8
                 ; 0000 0115                 {
                 ; 0000 0116                     tis=' ';
000570 940e 18a6 	CALL SUBOPT_0x15
                 ; 0000 0117                     if (sot==0)
000572 f451      	BRNE _0xD9
                 ; 0000 0118                     {
                 ; 0000 0119                         sot=' ';
000573 e2e0      	LDI  R30,LOW(32)
000574 93e0 01fe 	STS  _sot,R30
                 ; 0000 011A                         if(des==0)
000576 91e0 01fd 	LDS  R30,_des
000578 30e0      	CPI  R30,0
000579 f419      	BRNE _0xDA
                 ; 0000 011B                             des=' ';
00057a e2e0      	LDI  R30,LOW(32)
00057b 93e0 01fd 	STS  _des,R30
                 ; 0000 011C                     }
                 _0xDA:
                 ; 0000 011D                     }
                 _0xD9:
                 ; 0000 011E  	        }
                 _0xD8:
                 ; 0000 011F  	if (point==2)
                 _0xD3:
00057d 91a0 01fa 	LDS  R26,_point
00057f 30a2      	CPI  R26,LOW(0x2)
000580 f551      	BRNE _0xDB
                 ; 0000 0120  	        {
                 ; 0000 0121                 if (str[1]=='-') tis='-';
000581 85ae      	LDD  R26,Y+14
000582 32ad      	CPI  R26,LOW(0x2D)
000583 f411      	BRNE _0xDC
000584 e2ed      	LDI  R30,LOW(45)
000585 c007      	RJMP _0x3A9
                 ; 0000 0122                 else if (str[1]==0)tis=0;
                 _0xDC:
000586 85ee      	LDD  R30,Y+14
000587 30e0      	CPI  R30,0
000588 f411      	BRNE _0xDE
000589 e0e0      	LDI  R30,LOW(0)
00058a c002      	RJMP _0x3A9
                 ; 0000 0123                 else tis=str[1]-0x30;
                 _0xDE:
00058b 85ee      	LDD  R30,Y+14
00058c 53e0      	SUBI R30,LOW(48)
                 _0x3A9:
00058d 93e0 01ff 	STS  _tis,R30
                 ; 0000 0124                 if (str[2]=='-') sot='-';
00058f 85af      	LDD  R26,Y+15
000590 32ad      	CPI  R26,LOW(0x2D)
000591 f411      	BRNE _0xE0
000592 e2ed      	LDI  R30,LOW(45)
000593 c007      	RJMP _0x3AA
                 ; 0000 0125                 else if (str[2]==0)sot=0;
                 _0xE0:
000594 85ef      	LDD  R30,Y+15
000595 30e0      	CPI  R30,0
000596 f411      	BRNE _0xE2
000597 e0e0      	LDI  R30,LOW(0)
000598 c002      	RJMP _0x3AA
                 ; 0000 0126                 else sot=str[2]-0x30;
                 _0xE2:
000599 85ef      	LDD  R30,Y+15
00059a 53e0      	SUBI R30,LOW(48)
                 _0x3AA:
00059b 93e0 01fe 	STS  _sot,R30
                 ; 0000 0127                 des=str[3]-0x30;
00059d 89e8      	LDD  R30,Y+16
00059e 53e0      	SUBI R30,LOW(48)
00059f 93e0 01fd 	STS  _des,R30
                 ; 0000 0128                 ed=str[5]-0x30;
0005a1 89ea      	LDD  R30,Y+18
0005a2 940e 189f 	CALL SUBOPT_0x14
                 ; 0000 0129                 if (tis==0){tis=' ';if (sot==0)sot=' ';}
0005a4 f431      	BRNE _0xE4
0005a5 940e 18a6 	CALL SUBOPT_0x15
0005a7 f419      	BRNE _0xE5
0005a8 e2e0      	LDI  R30,LOW(32)
0005a9 93e0 01fe 	STS  _sot,R30
                 _0xE5:
                 ; 0000 012A  	        }
                 _0xE4:
                 ; 0000 012B  	if (point==3)
                 _0xDB:
0005ab 91a0 01fa 	LDS  R26,_point
0005ad 30a3      	CPI  R26,LOW(0x3)
0005ae f539      	BRNE _0xE6
                 ; 0000 012C  	        {
                 ; 0000 012D                 if (str[2]=='-') tis='-';
0005af 85af      	LDD  R26,Y+15
0005b0 32ad      	CPI  R26,LOW(0x2D)
0005b1 f411      	BRNE _0xE7
0005b2 e2ed      	LDI  R30,LOW(45)
0005b3 c007      	RJMP _0x3AB
                 ; 0000 012E                 else if (str[2]==0)tis=0;
                 _0xE7:
0005b4 85ef      	LDD  R30,Y+15
0005b5 30e0      	CPI  R30,0
0005b6 f411      	BRNE _0xE9
0005b7 e0e0      	LDI  R30,LOW(0)
0005b8 c002      	RJMP _0x3AB
                 ; 0000 012F                 else tis=str[2]-0x30;
                 _0xE9:
0005b9 85ef      	LDD  R30,Y+15
0005ba 53e0      	SUBI R30,LOW(48)
                 _0x3AB:
0005bb 93e0 01ff 	STS  _tis,R30
                 ; 0000 0130                 if (str[3]=='-') sot='-';
0005bd 89a8      	LDD  R26,Y+16
0005be 32ad      	CPI  R26,LOW(0x2D)
0005bf f411      	BRNE _0xEB
0005c0 e2ed      	LDI  R30,LOW(45)
0005c1 c007      	RJMP _0x3AC
                 ; 0000 0131                 else if (str[3]==0)sot=0;
                 _0xEB:
0005c2 89e8      	LDD  R30,Y+16
0005c3 30e0      	CPI  R30,0
0005c4 f411      	BRNE _0xED
0005c5 e0e0      	LDI  R30,LOW(0)
0005c6 c002      	RJMP _0x3AC
                 ; 0000 0132                 else sot=str[3]-0x30;
                 _0xED:
0005c7 89e8      	LDD  R30,Y+16
0005c8 53e0      	SUBI R30,LOW(48)
                 _0x3AC:
0005c9 93e0 01fe 	STS  _sot,R30
                 ; 0000 0133                 des=str[5]-0x30;
0005cb 89ea      	LDD  R30,Y+18
0005cc 53e0      	SUBI R30,LOW(48)
0005cd 93e0 01fd 	STS  _des,R30
                 ; 0000 0134                 ed=str[6]-0x30;
0005cf 89eb      	LDD  R30,Y+19
0005d0 940e 189f 	CALL SUBOPT_0x14
                 ; 0000 0135                 if (tis==0)tis=' ';
0005d2 f419      	BRNE _0xEF
0005d3 e2e0      	LDI  R30,LOW(32)
0005d4 93e0 01ff 	STS  _tis,R30
                 ; 0000 0136  	        }
                 _0xEF:
                 ; 0000 0137  	if (point==4)
                 _0xE6:
0005d6 91a0 01fa 	LDS  R26,_point
0005d8 30a4      	CPI  R26,LOW(0x4)
0005d9 f521      	BRNE _0xF0
                 ; 0000 0138  	        {
                 ; 0000 0139                 if (str[3]=='-') tis='-';
0005da 89a8      	LDD  R26,Y+16
0005db 32ad      	CPI  R26,LOW(0x2D)
0005dc f411      	BRNE _0xF1
0005dd e2ed      	LDI  R30,LOW(45)
0005de c007      	RJMP _0x3AD
                 ; 0000 013A                 else if (str[3]==0)tis=0;
                 _0xF1:
0005df 89e8      	LDD  R30,Y+16
0005e0 30e0      	CPI  R30,0
0005e1 f411      	BRNE _0xF3
0005e2 e0e0      	LDI  R30,LOW(0)
0005e3 c002      	RJMP _0x3AD
                 ; 0000 013B                 else tis=str[3]-0x30;
                 _0xF3:
0005e4 89e8      	LDD  R30,Y+16
0005e5 53e0      	SUBI R30,LOW(48)
                 _0x3AD:
0005e6 93e0 01ff 	STS  _tis,R30
                 ; 0000 013C                 if (str[5]=='-') sot='-';
0005e8 89aa      	LDD  R26,Y+18
0005e9 32ad      	CPI  R26,LOW(0x2D)
0005ea f411      	BRNE _0xF5
0005eb e2ed      	LDI  R30,LOW(45)
0005ec c007      	RJMP _0x3AE
                 ; 0000 013D                 else if (str[5]==0)sot=0;
                 _0xF5:
0005ed 89ea      	LDD  R30,Y+18
0005ee 30e0      	CPI  R30,0
0005ef f411      	BRNE _0xF7
0005f0 e0e0      	LDI  R30,LOW(0)
0005f1 c002      	RJMP _0x3AE
                 ; 0000 013E                 else sot=str[5]-0x30;
                 _0xF7:
0005f2 89ea      	LDD  R30,Y+18
0005f3 53e0      	SUBI R30,LOW(48)
                 _0x3AE:
0005f4 93e0 01fe 	STS  _sot,R30
                 ; 0000 013F                 des=str[6]-0x30;
0005f6 89eb      	LDD  R30,Y+19
0005f7 53e0      	SUBI R30,LOW(48)
0005f8 93e0 01fd 	STS  _des,R30
                 ; 0000 0140                 ed=str[7]-0x30;
0005fa 89ec      	LDD  R30,Y+20
0005fb 53e0      	SUBI R30,LOW(48)
0005fc 93e0 01fc 	STS  _ed,R30
                 ; 0000 0141  	        }
                 ; 0000 0142  	}
                 _0xF0:
0005fe 940e 1f6a 	CALL __LOADLOCR4
000600 966a      	ADIW R28,26
000601 9508      	RET
                 ;//-------------------------------------------------------------------//
                 ;// ˜ÚÂÌËÂ ËÁ ¿÷œ
                 ;void find_save_reg(unsigned int a,float b);
                 ;float find_reg(unsigned int a);
                 ;void response_m_err(char a);                     //
                 ;//-------------------------------------------------------------------//
                 ;int read_adc()
                 ; 0000 014A         {
                 _read_adc:
                 ; 0000 014B         int a;
                 ; 0000 014C         cs=0;
000602 931a      	ST   -Y,R17
000603 930a      	ST   -Y,R16
                 ;	a -> R16,R17
000604 98c4      	CBI  0x18,4
                 ; 0000 014D         SPCR=0b01010001;
000605 e5e1      	LDI  R30,LOW(81)
000606 b9ed      	OUT  0xD,R30
                 ; 0000 014E         i=reg[0][A_12];
000607 940e 18ad 	CALL SUBOPT_0x16
                 ; 0000 014F         switch (i)
                 ; 0000 0150                 {
                 ; 0000 0151                 case 0: SPDR=0b10110001;break;//4-20mA 20=4.4   =3606 k=20/3606 AIN0
000609 f051      	BREQ _0x3AF
                 ; 0000 0152                 case 1: SPDR=0b10111001;break;//0-5mA   5=4.4   =3606 k= 5/3606 AIN1
00060a 30e1      	CPI  R30,LOW(0x1)
00060b f411      	BRNE _0xFF
00060c ebe9      	LDI  R30,LOW(185)
00060d c007      	RJMP _0x3B0
                 ; 0000 0153                 case 2: SPDR=0b10110001;break;//0-20mA 20=4.4   =3606 k=20/3606 AIN0
                 _0xFF:
00060e 30e2      	CPI  R30,LOW(0x2)
00060f f021      	BREQ _0x3AF
                 ; 0000 0154                 case 3: SPDR=0b10111001;break;//0-10V  10=4.506 =3606 k=10/3691 AIN1
000610 30e3      	CPI  R30,LOW(0x3)
000611 f411      	BRNE _0x102
000612 ebe9      	LDI  R30,LOW(185)
000613 c001      	RJMP _0x3B0
                 ; 0000 0155                 default:SPDR=0b10110001;break;//0-5V    5=4.506 =3606 k= 5/3691 AIN0
                 _0x102:
                 _0x3AF:
000614 ebe1      	LDI  R30,LOW(177)
                 _0x3B0:
000615 b9ef      	OUT  0xF,R30
                 ; 0000 0156                 }
                 ; 0000 0157         while(SPSR.7==0);
                 _0x103:
000616 9b77      	SBIS 0xE,7
000617 cffe      	RJMP _0x103
                 ; 0000 0158         a=SPDR;
000618 b10f      	IN   R16,15
000619 2711      	CLR  R17
                 ; 0000 0159         SPDR=0;
00061a e0e0      	LDI  R30,LOW(0)
00061b b9ef      	OUT  0xF,R30
                 ; 0000 015A         a=a<<8;
00061c 2f10      	MOV  R17,R16
00061d 2700      	CLR  R16
                 ; 0000 015B         while (SPSR.7 == 0);
                 _0x106:
00061e 9b77      	SBIS 0xE,7
00061f cffe      	RJMP _0x106
                 ; 0000 015C         a = a + SPDR;
000620 b1ef      	IN   R30,0xF
000621 e0f0      	LDI  R31,0
                +
000622 0f0e     +ADD R16 , R30
000623 1f1f     +ADC R17 , R31
                 	__ADDWRR 16,17,30,31
                 ; 0000 015D         cs=1;
000624 9ac4      	SBI  0x18,4
                 ; 0000 015E         return a;
000625 01f8      	MOVW R30,R16
000626 9109      	LD   R16,Y+
000627 9119      	LD   R17,Y+
000628 9508      	RET
                 ; 0000 015F         }
                 ;//-------------------------------------------------------------------//
                 ;unsigned int buf[9],buf_m[9];
                 ;char buf_begin,buf_end,buf_n[9];
                 ;float x,adc_filter;
                 ;char j,k,count_register,count_key2;
                 ;long start_time,start_time_mode,time_key;
                 ;
                 ;#include <function.h>
                 _rekey:
000629 91a0 0220 	LDS  R26,_count_key2
00062b 31a5      	CPI  R26,LOW(0x15)
00062c f040      	BRLO _0x10B
00062d 940e 18ba 	CALL SUBOPT_0x17
00062f 36a8      	CPI  R26,LOW(0x68)
000630 f018      	BRLO _0x10C
000631 e6e6      	LDI  R30,LOW(102)
000632 93e0 0202 	STS  _count_key1,R30
                 _0x10C:
000634 c046      	RJMP _0x10D
                 _0x10B:
000635 91a0 0202 	LDS  R26,_count_key1
000637 36a5      	CPI  R26,LOW(0x65)
000638 f068      	BRLO _0x10E
000639 940e 18ba 	CALL SUBOPT_0x17
00063b 36ab      	CPI  R26,LOW(0x6B)
00063c f040      	BRLO _0x10F
00063d e6e6      	LDI  R30,LOW(102)
00063e 93e0 0202 	STS  _count_key1,R30
000640 91e0 0220 	LDS  R30,_count_key2
000642 5fef      	SUBI R30,-LOW(1)
000643 93e0 0220 	STS  _count_key2,R30
                 _0x10F:
000645 c035      	RJMP _0x110
                 _0x10E:
000646 91a0 0229 	LDS  R26,_time_key
000648 91b0 022a 	LDS  R27,_time_key+1
00064a 9180 022b 	LDS  R24,_time_key+2
00064c 9190 022c 	LDS  R25,_time_key+3
00064e 940e 18c0 	CALL SUBOPT_0x18
                +
000650 33e3     +CPI R30 , LOW ( 0x33 )
000651 e0a0     +LDI R26 , HIGH ( 0x33 )
000652 07fa     +CPC R31 , R26
000653 e0a0     +LDI R26 , BYTE3 ( 0x33 )
000654 076a     +CPC R22 , R26
000655 e0a0     +LDI R26 , BYTE4 ( 0x33 )
000656 077a     +CPC R23 , R26
                 	__CPD1N 0x33
000657 f024      	BRLT _0x112
000658 91a0 0201 	LDS  R26,_count_key
00065a 30a1      	CPI  R26,LOW(0x1)
00065b f408      	BRSH _0x113
                 _0x112:
00065c c01e      	RJMP _0x111
                 _0x113:
00065d 940e 183b 	CALL SUBOPT_0x3
00065f 93e0 0229 	STS  _time_key,R30
000661 93f0 022a 	STS  _time_key+1,R31
000663 9360 022b 	STS  _time_key+2,R22
000665 9370 022c 	STS  _time_key+3,R23
000667 91a0 0201 	LDS  R26,_count_key
000669 50a1      	SUBI R26,LOW(1)
00066a 93a0 0201 	STS  _count_key,R26
00066c 31a4      	CPI  R26,LOW(0x14)
00066d f468      	BRSH _0x114
00066e e2e8      	LDI  R30,LOW(40)
00066f 93e0 0201 	STS  _count_key,R30
000671 940e 18ba 	CALL SUBOPT_0x17
000673 30a5      	CPI  R26,LOW(0x5)
000674 f030      	BRLO _0x115
000675 e6e6      	LDI  R30,LOW(102)
000676 93e0 0202 	STS  _count_key1,R30
000678 efea      	LDI  R30,LOW(250)
000679 93e0 0201 	STS  _count_key,R30
                 _0x115:
                 _0x114:
                 _0x111:
                 _0x110:
                 _0x10D:
00067b 9508      	RET
                 ;
                 ;float izm()
                 ; 0000 016A         {
                 _izm:
                 ; 0000 016B         char min_r,min_n;
                 ; 0000 016C         signed char rang[9];
                 ; 0000 016D         float k_f;
                 ; 0000 016E         //-------------------------------------------------------------------//
                 ; 0000 016F         //ËÁÏÂÂÌËÂ
                 ; 0000 0170         //-------------------------------------------------------------------//
                 ; 0000 0171         if (++buf_end>8) buf_end=0;
00067c 972d      	SBIW R28,13
00067d 931a      	ST   -Y,R17
00067e 930a      	ST   -Y,R16
                 ;	min_r -> R17
                 ;	min_n -> R16
                 ;	rang -> Y+6
                 ;	k_f -> Y+2
00067f 91a0 0215 	LDS  R26,_buf_end
000681 5faf      	SUBI R26,-LOW(1)
000682 93a0 0215 	STS  _buf_end,R26
000684 30a9      	CPI  R26,LOW(0x9)
000685 f018      	BRLO _0x116
000686 e0e0      	LDI  R30,LOW(0)
000687 93e0 0215 	STS  _buf_end,R30
                 ; 0000 0172         buf[buf_end]=read_adc();
                 _0x116:
000689 940e 18c4 	CALL SUBOPT_0x19
00068b 0fea      	ADD  R30,R26
00068c 1ffb      	ADC  R31,R27
00068d 93ff      	PUSH R31
00068e 93ef      	PUSH R30
00068f df72      	RCALL _read_adc
000690 91af      	POP  R26
000691 91bf      	POP  R27
000692 93ed      	ST   X+,R30
000693 93fc      	ST   X,R31
                 ; 0000 0173         min_r=9;
000694 e019      	LDI  R17,LOW(9)
                 ; 0000 0174         //-------------------------------------------------------------------//
                 ; 0000 0175         //-------------------------------------------------------------------//
                 ; 0000 0176         //ÏÓ‰‡Î¸Ì˚È ÙËÎ¸Ú *- ÌËÊÂÔÂ‚Â‰ÂÌÌ˚È ÍÓ‰ ÌÂ ‰ÂÎ‡ÂÚ ÌË˜Â„Ó, ÍÓÏÂ ‚˚·ÓÍË Ì‡ËÏÂÌ¸¯Â„Ó ÁÌ‡˜ÂÌËˇ ËÁ ÔÓÒÎÂ‰ÌËı 9ÚË ËÁÏÂÂÌËÈ*
                 ; 0000 0177         //-------------------------------------------------------------------//
                 ; 0000 0178         for (j=0;j<9;j++)
000695 e0e0      	LDI  R30,LOW(0)
000696 93e0 021e 	STS  _j,R30
                 _0x118:
000698 91a0 021e 	LDS  R26,_j
00069a 30a9      	CPI  R26,LOW(0x9)
00069b f010      	BRLO PC+3
00069c 940c 06da 	JMP _0x119
                 ; 0000 0179                 {
                 ; 0000 017A                 rang[j]=0;
00069e 940e 18cc 	CALL SUBOPT_0x1A
0006a0 e0e0      	LDI  R30,LOW(0)
0006a1 93ec      	ST   X,R30
                 ; 0000 017B                 for (i=0;i<9;i++)
0006a2 93e0 0200 	STS  _i,R30
                 _0x11B:
0006a4 91a0 0200 	LDS  R26,_i
0006a6 30a9      	CPI  R26,LOW(0x9)
0006a7 f4d8      	BRSH _0x11C
                 ; 0000 017C                         {
                 ; 0000 017D                         if (i!=j)
0006a8 91e0 021e 	LDS  R30,_j
0006aa 17ea      	CP   R30,R26
0006ab f0a1      	BREQ _0x11D
                 ; 0000 017E                                 {
                 ; 0000 017F                                 if (buf[j]<buf[i]) rang[j]--;
0006ac 940e 18d4 	CALL SUBOPT_0x1B
0006ae 160e      	CP   R0,R30
0006af 061f      	CPC  R1,R31
0006b0 f428      	BRSH _0x11E
0006b1 940e 18cc 	CALL SUBOPT_0x1A
0006b3 91ec      	LD   R30,X
0006b4 50e1      	SUBI R30,LOW(1)
0006b5 93ec      	ST   X,R30
                 ; 0000 0180                                 if (buf[j]>buf[i]) rang[j]++;
                 _0x11E:
0006b6 940e 18d4 	CALL SUBOPT_0x1B
0006b8 15e0      	CP   R30,R0
0006b9 05f1      	CPC  R31,R1
0006ba f428      	BRSH _0x11F
0006bb 940e 18cc 	CALL SUBOPT_0x1A
0006bd 91ec      	LD   R30,X
0006be 5fef      	SUBI R30,-LOW(1)
0006bf 93ec      	ST   X,R30
                 ; 0000 0181                                 }
                 _0x11F:
                 ; 0000 0182                         }
                 _0x11D:
0006c0 940e 18eb 	CALL SUBOPT_0x1C
0006c2 cfe1      	RJMP _0x11B
                 _0x11C:
                 ; 0000 0183                 if (cabs(rang[j])<min_r)
0006c3 940e 18cc 	CALL SUBOPT_0x1A
0006c5 91ec      	LD   R30,X
0006c6 93ea      	ST   -Y,R30
0006c7 940e 1706 	CALL _cabs
0006c9 17e1      	CP   R30,R17
0006ca f448      	BRSH _0x120
                 ; 0000 0184                         {
                 ; 0000 0185                         min_r=cabs(rang[j]);
0006cb 940e 18cc 	CALL SUBOPT_0x1A
0006cd 91ec      	LD   R30,X
0006ce 93ea      	ST   -Y,R30
0006cf 940e 1706 	CALL _cabs
0006d1 2f1e      	MOV  R17,R30
                 ; 0000 0186                         min_n=j;
0006d2 9100 021e 	LDS  R16,_j
                 ; 0000 0187                         }
                 ; 0000 0188                 }
                 _0x120:
0006d4 91e0 021e 	LDS  R30,_j
0006d6 5fef      	SUBI R30,-LOW(1)
0006d7 93e0 021e 	STS  _j,R30
0006d9 cfbe      	RJMP _0x118
                 _0x119:
                 ; 0000 0189         //-------------------------------------------------------------------//
                 ; 0000 018A         //‘Õ◊ *- ÂÒÚ¸ ÌÂÍÓÚÓ˚Â ÒÓÏÌÂÌËˇ, ˜ÚÓ ˝ÚÓ ÏÓÊÌÓ Ì‡Á‚‡Ú¸ ÙËÎ¸ÚÓÏ ÌËÁÍËı ˜‡ÒÚÓÚ, ÚÛÔÓ ÛÒÂ‰ÌˇÂÏ ÁÌ‡˜ÂÌËÂ ËÁÏÂÂÌËˇ ‡ˆÔ ‚ Â‰ËÌËˆÛ ‚ÂÏÂÌË ÛÒÂ‰ÌÂÌËˇ*
                 ; 0000 018B         //-------------------------------------------------------------------//
                 ; 0000 018C         k_f=reg[0][A_10];
                +
0006da e4a0     +LDI R26 , LOW ( _reg + ( 64 ) )
0006db e0b0     +LDI R27 , HIGH ( _reg + ( 64 ) )
                 	__POINTW2MN _reg,64
0006dc 940e 1f26 	CALL __EEPROMRDD
0006de 940e 18f1 	CALL SUBOPT_0x1D
                 ; 0000 018D         if (k_f==0) k_f=0.001;
0006e0 940e 18f6 	CALL SUBOPT_0x1E
0006e2 940e 1f5b 	CALL __CPD10
0006e4 f431      	BRNE _0x121
                +
0006e5 e6ef     +LDI R30 , LOW ( 0x3A83126F )
0006e6 e1f2     +LDI R31 , HIGH ( 0x3A83126F )
0006e7 e863     +LDI R22 , BYTE3 ( 0x3A83126F )
0006e8 e37a     +LDI R23 , BYTE4 ( 0x3A83126F )
                 	__GETD1N 0x3A83126F
0006e9 940e 18f1 	CALL SUBOPT_0x1D
                 ; 0000 018E         k_f=0.001/k_f;
                 _0x121:
0006eb 940e 18f6 	CALL SUBOPT_0x1E
0006ed 940e 18fb 	CALL SUBOPT_0x1F
0006ef 940e 1e24 	CALL __DIVF21
0006f1 940e 18f1 	CALL SUBOPT_0x1D
                 ; 0000 018F         adc_filter=k_f*buf[min_n]+(1-k_f)*adc_filter;
0006f3 2fe0      	MOV  R30,R16
0006f4 e0a3      	LDI  R26,LOW(_buf)
0006f5 e0b2      	LDI  R27,HIGH(_buf)
0006f6 e0f0      	LDI  R31,0
0006f7 0fee      	LSL  R30
0006f8 1fff      	ROL  R31
0006f9 940e 1900 	CALL SUBOPT_0x20
0006fb 940e 1905 	CALL SUBOPT_0x21
0006fd 940e 190a 	CALL SUBOPT_0x22
0006ff 940e 1dd6 	CALL __MULF12
000701 937f      	PUSH R23
000702 936f      	PUSH R22
000703 93ff      	PUSH R31
000704 93ef      	PUSH R30
000705 940e 1905 	CALL SUBOPT_0x21
000707 940e 190f 	CALL SUBOPT_0x23
000709 940e 1d7f 	CALL __SUBF12
00070b 91a0 021a 	LDS  R26,_adc_filter
00070d 91b0 021b 	LDS  R27,_adc_filter+1
00070f 9180 021c 	LDS  R24,_adc_filter+2
000711 9190 021d 	LDS  R25,_adc_filter+3
000713 940e 1dd6 	CALL __MULF12
000715 91af      	POP  R26
000716 91bf      	POP  R27
000717 918f      	POP  R24
000718 919f      	POP  R25
000719 940e 1d86 	CALL __ADDF12
00071b 93e0 021a 	STS  _adc_filter,R30
00071d 93f0 021b 	STS  _adc_filter+1,R31
00071f 9360 021c 	STS  _adc_filter+2,R22
000721 9370 021d 	STS  _adc_filter+3,R23
                 ; 0000 0190         //-------------------------------------------------------------------//
                 ; 0000 0191         return adc_filter;
000723 8119      	LDD  R17,Y+1
000724 8108      	LDD  R16,Y+0
000725 962f      	ADIW R28,15
000726 9508      	RET
                 ; 0000 0192         }
                 ;//-------------------------------------------------------------------//
                 ;char error;
                 ;//int crc;
                 ;float value[6],adc_value1,adc_value2,adc_value3;
                 ;bit blok1,blok2,signal;
                 ;void response_m_aa1();
                 ;void response_m_aa46();
                 ;void response_m_aa48();
                 ;void check_add_cr();
                 ;
                 ;void check_rx();
                 ;void mov_buf_mod(char a);		//
                 ;void mov_buf(char a);			//
                 ;void crc_end();				//
                 ;void crc_rtu(char a);			//
                 ;
                 ;//////////////////////////////////////////////////////////////////////
                 ;//
                 ;//      —˜ËÚ˚‚‡ÌËÂ ‰‡ÌÌ˚ı ËÁ Flash
                 ;//      The registers R0, R1, R22, R23, R24, R25, R26, R27, R30 and R31 can be freely used in assembly routines.
                 ;/////////////////////////////////////////////////////////////////////////////
                 ;int read_program_memory (int adr)
                 ; 0000 01A9 {
                 _read_program_memory:
                 ; 0000 01AA        #asm
                 ;	adr -> Y+0
                 ; 0000 01AB        LPM R22,Z+;//     Á‡„ÛÁÍ‡ ‚ Â„ËÒÚ R23 ÒÓ‰ÂÊËÏÓ„Ó ÙÎÂ¯ ÔÓ ‡‰ÂÒÛ Z Ò ÔÓÒÚËÌÍÂÏÂÌÚÓÏ (ÏÎ. ·‡ÈÚ)
000727 9165             LPM R22,Z+;//     Á‡„ÛÁÍ‡ ‚ Â„ËÒÚ R23 ÒÓ‰ÂÊËÏÓ„Ó ÙÎÂ¯ ÔÓ ‡‰ÂÒÛ Z Ò ÔÓÒÚËÌÍÂÏÂÌÚÓÏ (ÏÎ. ·‡ÈÚ)
                 ; 0000 01AC        LPM R23,Z; //     Á‡„ÛÁÍ‡ ‚ Â„ËÒÚ R22 ÒÓ‰ÂÊËÏÓ„Ó Flash  ÔÓ ‡‰ÂÒÛ Z+1 (ÒÚ‡¯ËÈ ·‡ÈÚ)
000728 9174             LPM R23,Z; //     Á‡„ÛÁÍ‡ ‚ Â„ËÒÚ R22 ÒÓ‰ÂÊËÏÓ„Ó Flash  ÔÓ ‡‰ÂÒÛ Z+1 (ÒÚ‡¯ËÈ ·‡ÈÚ)
                 ; 0000 01AD        MOV R30, R22;
000729 2fe6             MOV R30, R22;
                 ; 0000 01AE        MOV R31, R23;
00072a 2ff7             MOV R31, R23;
                 ; 0000 01AF        #endasm
                 ; 0000 01B0 }
00072b 9622      	ADIW R28,2
00072c 9508      	RET
                 ;
                 ;void sys_init()
                 ; 0000 01B3 {
                 _sys_init:
                 ; 0000 01B4 PORTA=0b11111111;DDRA=0b11111111;
00072d efef      	LDI  R30,LOW(255)
00072e bbeb      	OUT  0x1B,R30
00072f bbea      	OUT  0x1A,R30
                 ; 0000 01B5 PORTB=0b00000000;DDRB=0b10110011;
000730 e0e0      	LDI  R30,LOW(0)
000731 bbe8      	OUT  0x18,R30
000732 ebe3      	LDI  R30,LOW(179)
000733 bbe7      	OUT  0x17,R30
                 ; 0000 01B6 PORTC=0b11111011;DDRC=0b11111000;
000734 efeb      	LDI  R30,LOW(251)
000735 bbe5      	OUT  0x15,R30
000736 efe8      	LDI  R30,LOW(248)
000737 bbe4      	OUT  0x14,R30
                 ; 0000 01B7 PORTD=0b11000011;DDRD=0b00111110;
000738 ece3      	LDI  R30,LOW(195)
000739 bbe2      	OUT  0x12,R30
00073a e3ee      	LDI  R30,LOW(62)
00073b bbe1      	OUT  0x11,R30
                 ; 0000 01B8 //UBRRH=0x00;UBRRL=0x5f;UCSRB=0xD8;UCSRC=0x86;
                 ; 0000 01B9 
                 ; 0000 01BA 
                 ; 0000 01BB 
                 ; 0000 01BC TCCR0=0x03;TCNT0=TCNT0_reload;OCR0=0x00;
00073c e0e3      	LDI  R30,LOW(3)
00073d bfe3      	OUT  0x33,R30
00073e e6ef      	LDI  R30,LOW(111)
00073f bfe2      	OUT  0x32,R30
000740 e0e0      	LDI  R30,LOW(0)
000741 bfec      	OUT  0x3C,R30
                 ; 0000 01BD 
                 ; 0000 01BE ASSR=0x00;TCCR2=0x04;TCNT2=TCNT2_reload;OCR2=0x00;
000742 bde2      	OUT  0x22,R30
000743 e0e4      	LDI  R30,LOW(4)
000744 bde5      	OUT  0x25,R30
000745 e5ee      	LDI  R30,LOW(94)
000746 bde4      	OUT  0x24,R30
000747 e0e0      	LDI  R30,LOW(0)
000748 bde3      	OUT  0x23,R30
                 ; 0000 01BF //ASSR=0x00;TCCR2=0x07;TCNT2=TCNT2_reload;OCR2=0x00;
                 ; 0000 01C0 MCUCR=0x00;MCUCSR=0x00;TIMSK=0xFF;
000749 bfe5      	OUT  0x35,R30
00074a bfe4      	OUT  0x34,R30
00074b efef      	LDI  R30,LOW(255)
00074c bfe9      	OUT  0x39,R30
                 ; 0000 01C1 
                 ; 0000 01C2 //UBRRH=0x00;UBRRL=0x67;UCSRB=0xD8;UCSRC=0x86;
                 ; 0000 01C3 ACSR=0x80;SFIOR=0x00;SPCR=0x52;SPSR=0x00;WDTCR=0x1F;WDTCR=0x0F;
00074d e8e0      	LDI  R30,LOW(128)
00074e b9e8      	OUT  0x8,R30
00074f e0e0      	LDI  R30,LOW(0)
000750 bfe0      	OUT  0x30,R30
000751 e5e2      	LDI  R30,LOW(82)
000752 b9ed      	OUT  0xD,R30
000753 e0e0      	LDI  R30,LOW(0)
000754 b9ee      	OUT  0xE,R30
000755 e1ef      	LDI  R30,LOW(31)
000756 bde1      	OUT  0x21,R30
000757 e0ef      	LDI  R30,LOW(15)
000758 bde1      	OUT  0x21,R30
                 ; 0000 01C4 mod_time_s=60;
000759 e3ec      	LDI  R30,LOW(60)
00075a 2e8e      	MOV  R8,R30
                 ; 0000 01C5 }
00075b 9508      	RET
                 ;
                 ;void main(void)
                 ; 0000 01C8 {
                 _main:
                 ; 0000 01C9 bit flag_start_pause1,flag_start_pause2,f_m1,key_enter_press_switch1;
                 ; 0000 01CA float time_pause1,time_pause2/*,adc_value1*/;
                 ; 0000 01CB float data_register,adc_filter/*,adc_value2*/;
                 ; 0000 01CC float k_k,kk,bb,dop1,dop2;
                 ; 0000 01CD float gis_val1=reg[0][Y_01];         //ÁÌ‡˜ÂÌËÂ Ò Û˜ÂÚÓÏ „ËÒÚÂÂÁËÒ‡
                 ; 0000 01CE float gis_val2=reg[0][Y_02];
                 ; 0000 01CF char q1,q2,q3,q4,diap_val1=0,diap_val2=0,dataH,dataL,crcok_flag=0;//diap_val1,2 - ˝ÚÓ ‰Ë‡Ô‡ÁÓÌ Ì‡ 1Ï Ë Ì‡ 2Ï ¯‡„Â
                 ; 0000 01D0 float temp;
                 ; 0000 01D1 int  imin, imax, data, j = 0, j1=0;
                 ; 0000 01D2 unsigned char tmp[9];
                 ; 0000 01D3 crc = 0xffff;
00075c 97ef      	SBIW R28,63
00075d 9727      	SBIW R28,7
00075e e08f      	LDI  R24,15
00075f e0a9      	LDI  R26,LOW(9)
000760 e0b0      	LDI  R27,HIGH(9)
000761 e5e8      	LDI  R30,LOW(_0x122*2)
000762 e0f2      	LDI  R31,HIGH(_0x122*2)
000763 940e 1f6f 	CALL __INITLOCB
                 ;	flag_start_pause1 -> R15.0
                 ;	flag_start_pause2 -> R15.1
                 ;	f_m1 -> R15.2
                 ;	key_enter_press_switch1 -> R15.3
                 ;	time_pause1 -> Y+66
                 ;	time_pause2 -> Y+62
                 ;	data_register -> Y+58
                 ;	adc_filter -> Y+54
                 ;	k_k -> Y+50
                 ;	kk -> Y+46
                 ;	bb -> Y+42
                 ;	dop1 -> Y+38
                 ;	dop2 -> Y+34
                 ;	gis_val1 -> Y+30
                 ;	gis_val2 -> Y+26
                 ;	q1 -> R17
                 ;	q2 -> R16
                 ;	q3 -> R19
                 ;	q4 -> R18
                 ;	diap_val1 -> R21
                 ;	diap_val2 -> R20
                 ;	dataH -> Y+25
                 ;	dataL -> Y+24
                 ;	crcok_flag -> Y+23
                 ;	temp -> Y+19
                 ;	imin -> Y+17
                 ;	imax -> Y+15
                 ;	data -> Y+13
                 ;	j -> Y+11
                 ;	j1 -> Y+9
                 ;	tmp -> Y+0
000765 940e 1914 	CALL SUBOPT_0x24
                +
000767 8fee     +STD Y + 30 , R30
000768 8fff     +STD Y + 30 + 1 , R31
000769 a368     +STD Y + 30 + 2 , R22
00076a a379     +STD Y + 30 + 3 , R23
                 	__PUTD1S 30
00076b 940e 1919 	CALL SUBOPT_0x25
                +
00076d 8fea     +STD Y + 26 , R30
00076e 8ffb     +STD Y + 26 + 1 , R31
00076f 8f6c     +STD Y + 26 + 2 , R22
000770 8f7d     +STD Y + 26 + 3 , R23
                 	__PUTD1S 26
000771 e050      	LDI  R21,0
000772 e040      	LDI  R20,0
000773 940e 191e 	CALL SUBOPT_0x26
                 ; 0000 01D4 //if(high==0)
                 ; 0000 01D5 //{
                 ; 0000 01D6           // imin=0;
                 ; 0000 01D7          //  imax=PAGESIZE*APP_PAGES;
                 ; 0000 01D8 //}
                 ; 0000 01D9 //else
                 ; 0000 01DA //{
                 ; 0000 01DB //   imin=PAGESIZE*APP_PAGES;
                 ; 0000 01DC //   imax=PAGESIZE*PAGES;
                 ; 0000 01DD //}
                 ; 0000 01DE //            for(i=imin; i<imax;  i+=2)
                 ; 0000 01DF //            {
                 ; 0000 01E0 //               data= read_program_memory (i,0);
                 ; 0000 01E1 //               crc^=LOBYTE(data);
                 ; 0000 01E2 //               crc^=HIBYTE(data);
                 ; 0000 01E3 //            }
                 ; 0000 01E4 //
                 ; 0000 01E5 // while(1)
                 ; 0000 01E6 //         {
                 ; 0000 01E7 //         DDRC=0xFF;
                 ; 0000 01E8 //         DDRA=0xFF;
                 ; 0000 01E9 //         anode1=1;
                 ; 0000 01EA //         anode2=1;
                 ; 0000 01EB //         anode3=1;
                 ; 0000 01EC //         anode4=0;
                 ; 0000 01ED //         anode5=0;
                 ; 0000 01EE //         q1++;
                 ; 0000 01EF //         if (q1>9)q1=0;
                 ; 0000 01F0 //         katode=255-led_calk(q1);
                 ; 0000 01F1 //         delay_ms(500);
                 ; 0000 01F2 //
                 ; 0000 01F3 //
                 ; 0000 01F4 //         }
                 ; 0000 01F5 //
                 ; 0000 01F6 // temp=2345;
                 ; 0000 01F7 // reg[0,0]=temp;
                 ; 0000 01F8 //
                 ; 0000 01F9 // reg[0,0]=1234;
                 ; 0000 01FA // temp=reg[0,0];
                 ; 0000 01FB //
                 ; 0000 01FC // q1=(*((unsigned char *)(&temp)+0));
                 ; 0000 01FD // q2=(*((unsigned char *)(&temp)+1));
                 ; 0000 01FE // q3=(*((unsigned char *)(&temp)+2));
                 ; 0000 01FF // q4=(*((unsigned char *)(&temp)+3));
                 ; 0000 0200 //
                 ; 0000 0201 //
                 ; 0000 0202 // q1=0;
                 ; 0000 0203 // q2=1;
                 ; 0000 0204 // q3=2;
                 ; 0000 0205 // q4=0x44;
                 ; 0000 0206 //
                 ; 0000 0207 //
                 ; 0000 0208 // *((unsigned char *)(&temp)+0)=q1;
                 ; 0000 0209 // *((unsigned char *)(&temp)+1)=q2;
                 ; 0000 020A // *((unsigned char *)(&temp)+2)=q3;
                 ; 0000 020B // *((unsigned char *)(&temp)+3)=q4;
                 ; 0000 020C //
                 ; 0000 020D // reg[0,0]=temp;
                 ; 0000 020E // reg[0,0]=temp;
                 ; 0000 020F // reg[0,0]=temp;
                 ; 0000 0210 //
                 ; 0000 0211 
                 ; 0000 0212 point=ee_point;
000775 940e 1925 	CALL SUBOPT_0x27
                 ; 0000 0213 
                 ; 0000 0214 sys_init();
000777 dfb5      	RCALL _sys_init
                 ; 0000 0215 #asm("cli");
000778 94f8      	cli
                 ; 0000 0216 
                 ; 0000 0217 
                 ; 0000 0218 //goto a1;//test
                 ; 0000 0219 //goto a2;//test
                 ; 0000 021A 
                 ; 0000 021B //-------------------------------------------------------------------//
                 ; 0000 021C //ŒÊË‰‡ÌËÂ ‚ÍÎ˛˜ÂÌËˇ ÔËÚ‡ÌËˇ
                 ; 0000 021D //-------------------------------------------------------------------//
                 ; 0000 021E 
                 ; 0000 021F while ((data<=65534)|(j<=16382))
                 _0x123:
000779 85ad      	LDD  R26,Y+13
00077a 85be      	LDD  R27,Y+13+1
00077b efee      	LDI  R30,LOW(65534)
00077c efff      	LDI  R31,HIGH(65534)
00077d 940e 1eba 	CALL __LEW12U
00077f 2e0e      	MOV  R0,R30
000780 85ab      	LDD  R26,Y+11
000781 85bc      	LDD  R27,Y+11+1
000782 efee      	LDI  R30,LOW(16382)
000783 e3ff      	LDI  R31,HIGH(16382)
000784 940e 1eb4 	CALL __LEW12
000786 29e0      	OR   R30,R0
000787 f0c1      	BREQ _0x125
                 ; 0000 0220 {
                 ; 0000 0221     data= read_program_memory (j);
000788 85eb      	LDD  R30,Y+11
000789 85fc      	LDD  R31,Y+11+1
00078a 93fa      	ST   -Y,R31
00078b 93ea      	ST   -Y,R30
00078c df9a      	RCALL _read_program_memory
00078d 87ed      	STD  Y+13,R30
00078e 87fe      	STD  Y+13+1,R31
                 ; 0000 0222     dataH = (int)data>>8;
00078f 940e 1e9f 	CALL __ASRW8
000791 8fe9      	STD  Y+25,R30
                 ; 0000 0223     dataL = data;
000792 85ed      	LDD  R30,Y+13
000793 8fe8      	STD  Y+24,R30
                 ; 0000 0224     CRC_update(dataH);
000794 8de9      	LDD  R30,Y+25
000795 93ea      	ST   -Y,R30
000796 dd1f      	RCALL _CRC_update
                 ; 0000 0225     CRC_update(dataL);
000797 8de8      	LDD  R30,Y+24
000798 93ea      	ST   -Y,R30
000799 dd1c      	RCALL _CRC_update
                 ; 0000 0226     //crc_rtu(data);
                 ; 0000 0227     //j++;
                 ; 0000 0228     j=j+2;
00079a 85eb      	LDD  R30,Y+11
00079b 85fc      	LDD  R31,Y+11+1
00079c 9632      	ADIW R30,2
00079d 87eb      	STD  Y+11,R30
00079e 87fc      	STD  Y+11+1,R31
                 ; 0000 0229 }
00079f cfd9      	RJMP _0x123
                 _0x125:
                 ; 0000 022A crceep = crc;
0007a0 940e 1889 	CALL SUBOPT_0x10
0007a2 eba1      	LDI  R26,LOW(_crceep)
0007a3 e0b1      	LDI  R27,HIGH(_crceep)
0007a4 940e 1f42 	CALL __EEPROMWRW
                 ; 0000 022B i=0;
0007a6 e0e0      	LDI  R30,LOW(0)
0007a7 93e0 0200 	STS  _i,R30
                 ; 0000 022C #asm("sei")
0007a9 9478      	sei
                 ; 0000 022D start_time=sys_time;count_register=1;
0007aa 940e 192c 	CALL SUBOPT_0x28
                 ; 0000 022E power = 1;
0007ac 9a93      	SBI  0x12,3
                 ; 0000 022F 
                 ; 0000 0230 //ftoa(-100.989,5,tmp);
                 ; 0000 0231 //for(j=0; j < 9; j++)
                 ; 0000 0232 //    smth[j] = tmp[j];
                 ; 0000 0233 for(j1=0;j1<2;j1++)
0007ad e0e0      	LDI  R30,LOW(0)
0007ae 87e9      	STD  Y+9,R30
0007af 87ea      	STD  Y+9+1,R30
                 _0x129:
0007b0 85a9      	LDD  R26,Y+9
0007b1 85ba      	LDD  R27,Y+9+1
0007b2 9712      	SBIW R26,2
0007b3 f014      	BRLT PC+3
0007b4 940c 0864 	JMP _0x12A
                 ; 0000 0234 {
                 ; 0000 0235 tis='v';sot=1;des= 0 ;ed=1;
0007b6 940e 1939 	CALL SUBOPT_0x29
                 ; 0000 0236 set_digit_on(tis,sot,des,ed);        set_digit_off(tis,sot,des,ed);
0007b8 940e 1946 	CALL SUBOPT_0x2A
0007ba 940e 1953 	CALL SUBOPT_0x2B
0007bc 940e 1956 	CALL SUBOPT_0x2C
                 ; 0000 0237 set_led_on(0,0,0,0,0,0,0,0);         set_led_off(0,0,0,0,0,0,0,0);
0007be 940e 1962 	CALL SUBOPT_0x2D
                 ; 0000 0238 delay_ms(1500);
                 ; 0000 0239 
                 ; 0000 023A if(reg[0][24]>=1000)
0007c0 940e 1975 	CALL SUBOPT_0x2E
0007c2 940e 197a 	CALL SUBOPT_0x2F
0007c4 940e 1e69 	CALL __CMPF12
0007c6 f068      	BRLO _0x12B
                 ; 0000 023B {
                 ; 0000 023C       tis=1;sot=0;des= 0 ;ed=0;
0007c7 e0e1      	LDI  R30,LOW(1)
0007c8 93e0 01ff 	STS  _tis,R30
0007ca e0e0      	LDI  R30,LOW(0)
0007cb 940e 1981 	CALL SUBOPT_0x30
0007cd e0e0      	LDI  R30,LOW(0)
0007ce 940e 1987 	CALL SUBOPT_0x31
                 ; 0000 023D        set_digit_on(tis,sot,des,ed);
0007d0 940e 198a 	CALL SUBOPT_0x32
                 ; 0000 023E       set_led_on(0,0,0,0,0,0,0,0);
0007d2 e0e0      	LDI  R30,LOW(0)
0007d3 c027      	RJMP _0x3B1
                 ; 0000 023F }
                 ; 0000 0240 else
                 _0x12B:
                 ; 0000 0241 {
                 ; 0000 0242     tis  = (reg[0][24]*1000)/1000;
0007d4 940e 1975 	CALL SUBOPT_0x2E
0007d6 940e 1992 	CALL SUBOPT_0x33
0007d8 940e 197a 	CALL SUBOPT_0x2F
0007da 940e 1999 	CALL SUBOPT_0x34
                 ; 0000 0243     sot  = ((int)(reg[0][24]*1000)%1000)/100;
0007dc 940e 1975 	CALL SUBOPT_0x2E
0007de 940e 1992 	CALL SUBOPT_0x33
0007e0 940e 19a1 	CALL SUBOPT_0x35
0007e2 940e 19a7 	CALL SUBOPT_0x36
                 ; 0000 0244     des  = ((int)(reg[0][24]*1000)%100)/10;
0007e4 940e 1975 	CALL SUBOPT_0x2E
0007e6 940e 1992 	CALL SUBOPT_0x33
0007e8 940e 19a1 	CALL SUBOPT_0x35
0007ea 940e 19b3 	CALL SUBOPT_0x37
                 ; 0000 0245     ed  =(int) (reg[0][24]*1000)%10;
0007ec 940e 1975 	CALL SUBOPT_0x2E
0007ee 940e 1992 	CALL SUBOPT_0x33
0007f0 940e 19a1 	CALL SUBOPT_0x35
0007f2 e0ea      	LDI  R30,LOW(10)
0007f3 e0f0      	LDI  R31,HIGH(10)
0007f4 940e 1ed8 	CALL __MODW21
0007f6 940e 1987 	CALL SUBOPT_0x31
                 ; 0000 0246     set_digit_on(tis,sot,des,ed);
0007f8 940e 198a 	CALL SUBOPT_0x32
                 ; 0000 0247     set_led_on(0,0,0,0,1,0,0,0);
0007fa e0e1      	LDI  R30,LOW(1)
                 _0x3B1:
0007fb 93ea      	ST   -Y,R30
0007fc 940e 19bf 	CALL SUBOPT_0x38
0007fe db93      	RCALL _set_led_on
                 ; 0000 0248 }
                 ; 0000 0249 delay_ms(1000);
0007ff 940e 19c4 	CALL SUBOPT_0x39
                 ; 0000 024A //tis=1;sot=0;des= 0 ;ed=0;
                 ; 0000 024B set_digit_off(tis,sot,des,ed);
000801 940e 1946 	CALL SUBOPT_0x2A
000803 940e 1956 	CALL SUBOPT_0x2C
                 ; 0000 024C set_led_off(0,0,0,0,0,0,0,0);
000805 dc04      	RCALL _set_led_off
                 ; 0000 024D //delay_ms(750);
                 ; 0000 024E 
                 ; 0000 024F //set_digit_off(tis,sot,des,ed);
                 ; 0000 0250 tis='c';sot='r';des= 'c' ;ed=' ';
000806 e6e3      	LDI  R30,LOW(99)
000807 93e0 01ff 	STS  _tis,R30
000809 e7e2      	LDI  R30,LOW(114)
00080a 93e0 01fe 	STS  _sot,R30
00080c e6e3      	LDI  R30,LOW(99)
00080d 93e0 01fd 	STS  _des,R30
00080f e2e0      	LDI  R30,LOW(32)
000810 940e 1987 	CALL SUBOPT_0x31
                 ; 0000 0251 set_digit_on(tis,sot,des,ed);        set_digit_off(tis,sot,des,ed);
000812 940e 1953 	CALL SUBOPT_0x2B
000814 940e 1956 	CALL SUBOPT_0x2C
                 ; 0000 0252 set_led_on(0,0,0,0,0,0,0,0);         set_led_off(0,0,0,0,0,0,0,0);
000816 940e 1962 	CALL SUBOPT_0x2D
                 ; 0000 0253 delay_ms(1500);
                 ; 0000 0254 tis=3;sot='c';des= 2 ;ed=1;
000818 e0e3      	LDI  R30,LOW(3)
000819 93e0 01ff 	STS  _tis,R30
00081b e6e3      	LDI  R30,LOW(99)
00081c 940e 19ca 	CALL SUBOPT_0x3A
00081e e0e1      	LDI  R30,LOW(1)
00081f 940e 1987 	CALL SUBOPT_0x31
                 ; 0000 0255 set_digit_on(tis,sot,des,ed);        set_digit_off(tis,sot,des,ed);
000821 940e 1953 	CALL SUBOPT_0x2B
000823 940e 1956 	CALL SUBOPT_0x2C
                 ; 0000 0256 set_led_on(0,0,0,0,0,0,0,0);         set_led_off(0,0,0,0,0,0,0,0);
000825 940e 1962 	CALL SUBOPT_0x2D
                 ; 0000 0257 delay_ms(1500);
                 ; 0000 0258 tis=' ';sot=' ';des= ' ' ;ed = ' ';
000827 e2e0      	LDI  R30,LOW(32)
000828 93e0 01ff 	STS  _tis,R30
00082a 940e 19d0 	CALL SUBOPT_0x3B
00082c 940e 1987 	CALL SUBOPT_0x31
                 ; 0000 0259 set_digit_on(tis,sot,des,ed);        set_digit_off(tis,sot,des,ed);
00082e 940e 1953 	CALL SUBOPT_0x2B
000830 dc69      	RCALL _set_digit_off
                 ; 0000 025A if(crceep == crcstatic)
000831 eba1      	LDI  R26,LOW(_crceep)
000832 e0b1      	LDI  R27,HIGH(_crceep)
000833 940e 1f2a 	CALL __EEPROMRDW
000835 010f      	MOVW R0,R30
000836 eba3      	LDI  R26,LOW(_crcstatic)
000837 e0b1      	LDI  R27,HIGH(_crcstatic)
000838 940e 1f2a 	CALL __EEPROMRDW
00083a 15e0      	CP   R30,R0
00083b 05f1      	CPC  R31,R1
00083c f451      	BRNE _0x12D
                 ; 0000 025B     {
                 ; 0000 025C     tis=0;
00083d e0e0      	LDI  R30,LOW(0)
00083e 93e0 01ff 	STS  _tis,R30
                 ; 0000 025D     sot='k';
000840 e6eb      	LDI  R30,LOW(107)
000841 940e 19d0 	CALL SUBOPT_0x3B
                 ; 0000 025E     des=' ';
                 ; 0000 025F     ed = ' ';
000843 93e0 01fc 	STS  _ed,R30
                 ; 0000 0260     crcok_flag=1;
000845 e0e1      	LDI  R30,LOW(1)
000846 c00d      	RJMP _0x3B2
                 ; 0000 0261     }
                 ; 0000 0262 else
                 _0x12D:
                 ; 0000 0263     {
                 ; 0000 0264     tis='f';sot='a';des= 'i' ;ed = 'l';
000847 e6e6      	LDI  R30,LOW(102)
000848 93e0 01ff 	STS  _tis,R30
00084a e6e1      	LDI  R30,LOW(97)
00084b 93e0 01fe 	STS  _sot,R30
00084d e6e9      	LDI  R30,LOW(105)
00084e 93e0 01fd 	STS  _des,R30
000850 e6ec      	LDI  R30,LOW(108)
000851 93e0 01fc 	STS  _ed,R30
                 ; 0000 0265     crcok_flag = 0;
000853 e0e0      	LDI  R30,LOW(0)
                 _0x3B2:
000854 8bef      	STD  Y+23,R30
                 ; 0000 0266     }
                 ; 0000 0267 set_digit_on(tis,sot,des,ed);        set_digit_off(tis,sot,des,ed);
000855 940e 1946 	CALL SUBOPT_0x2A
000857 940e 1953 	CALL SUBOPT_0x2B
000859 dc40      	RCALL _set_digit_off
                 ; 0000 0268 delay_ms(1500);
00085a edec      	LDI  R30,LOW(1500)
00085b e0f5      	LDI  R31,HIGH(1500)
00085c 940e 19d6 	CALL SUBOPT_0x3C
                 ; 0000 0269 
                 ; 0000 026A }
00085e 85e9      	LDD  R30,Y+9
00085f 85fa      	LDD  R31,Y+9+1
000860 9631      	ADIW R30,1
000861 87e9      	STD  Y+9,R30
000862 87fa      	STD  Y+9+1,R31
000863 cf4c      	RJMP _0x129
                 _0x12A:
                 ; 0000 026B power_off:
                 _0x12F:
                 ; 0000 026C sys_init();
000864 dec8      	RCALL _sys_init
                 ; 0000 026D start_time =0;
000865 e0e0      	LDI  R30,LOW(0)
000866 93e0 0221 	STS  _start_time,R30
000868 93e0 0222 	STS  _start_time+1,R30
00086a 93e0 0223 	STS  _start_time+2,R30
00086c 93e0 0224 	STS  _start_time+3,R30
                 ; 0000 026E #asm ("cli")
00086e 94f8      	cli
                 ; 0000 026F power = 0;
00086f 9893      	CBI  0x12,3
                 ; 0000 0270 if(crcok_flag==1)
000870 89af      	LDD  R26,Y+23
000871 30a1      	CPI  R26,LOW(0x1)
000872 f011      	BREQ PC+3
000873 940c 12e9 	JMP _0x132
                 ; 0000 0271 {
                 ; 0000 0272 while ((key_1==0)&&(key_2==0)&&(key_3==0)&&(key_4==0));
                 _0x133:
000875 e0a0      	LDI  R26,0
000876 9998      	SBIC 0x13,0
000877 e0a1      	LDI  R26,1
000878 30a0      	CPI  R26,LOW(0x0)
000879 f479      	BRNE _0x136
00087a e0a0      	LDI  R26,0
00087b 9999      	SBIC 0x13,1
00087c e0a1      	LDI  R26,1
00087d 30a0      	CPI  R26,LOW(0x0)
00087e f451      	BRNE _0x136
00087f e0a0      	LDI  R26,0
000880 9986      	SBIC 0x10,6
000881 e0a1      	LDI  R26,1
000882 30a0      	CPI  R26,LOW(0x0)
000883 f429      	BRNE _0x136
000884 e0a0      	LDI  R26,0
000885 9987      	SBIC 0x10,7
000886 e0a1      	LDI  R26,1
000887 30a0      	CPI  R26,LOW(0x0)
000888 f009      	BREQ _0x137
                 _0x136:
000889 c001      	RJMP _0x135
                 _0x137:
00088a cfea      	RJMP _0x133
                 _0x135:
                 ; 0000 0273 while (i<100)
                 _0x138:
00088b 91a0 0200 	LDS  R26,_i
00088d 36a4      	CPI  R26,LOW(0x64)
00088e f4d8      	BRSH _0x13A
                 ; 0000 0274         {
                 ; 0000 0275         if ((key_1==0)&&(key_4==0)&&(key_2==1)&&(key_3==1)) i++;
00088f e0a0      	LDI  R26,0
000890 9998      	SBIC 0x13,0
000891 e0a1      	LDI  R26,1
000892 30a0      	CPI  R26,LOW(0x0)
000893 f449      	BRNE _0x13C
000894 e0a0      	LDI  R26,0
000895 9987      	SBIC 0x10,7
000896 e0a1      	LDI  R26,1
000897 30a0      	CPI  R26,LOW(0x0)
000898 f421      	BRNE _0x13C
000899 9b99      	SBIS 0x13,1
00089a c002      	RJMP _0x13C
00089b 9986      	SBIC 0x10,6
00089c c001      	RJMP _0x13D
                 _0x13C:
00089d c004      	RJMP _0x13B
                 _0x13D:
00089e 91e0 0200 	LDS  R30,_i
0008a0 5fef      	SUBI R30,-LOW(1)
0008a1 c001      	RJMP _0x3B3
                 ; 0000 0276         else i=0;
                 _0x13B:
0008a2 e0e0      	LDI  R30,LOW(0)
                 _0x3B3:
0008a3 93e0 0200 	STS  _i,R30
                 ; 0000 0277         delay_ms(20);
0008a5 e1e4      	LDI  R30,LOW(20)
0008a6 e0f0      	LDI  R31,HIGH(20)
0008a7 940e 19d6 	CALL SUBOPT_0x3C
                 ; 0000 0278         }
0008a9 cfe1      	RJMP _0x138
                 _0x13A:
                 ; 0000 0279 //-------------------------------------------------------------------//
                 ; 0000 027A 
                 ; 0000 027B power=1;
0008aa 9a93      	SBI  0x12,3
                 ; 0000 027C data_register=reg[0][A_07];
0008ab 940e 19da 	CALL SUBOPT_0x3D
0008ad 940e 19df 	CALL SUBOPT_0x3E
                 ; 0000 027D if (data_register<0)
0008af adad      	LDD  R26,Y+61
0008b0 23aa      	TST  R26
0008b1 f4aa      	BRPL _0x141
                 ; 0000 027E         {
                 ; 0000 027F         if (data_register>=-1000)point=1;
0008b2 940e 19e4 	CALL SUBOPT_0x3F
0008b4 940e 19e9 	CALL SUBOPT_0x40
0008b6 f018      	BRLO _0x142
0008b7 e0e1      	LDI  R30,LOW(1)
0008b8 93e0 01fa 	STS  _point,R30
                 ; 0000 0280         if (data_register>=-100)point=2;
                 _0x142:
0008ba 940e 19f0 	CALL SUBOPT_0x41
0008bc f018      	BRLO _0x143
0008bd e0e2      	LDI  R30,LOW(2)
0008be 93e0 01fa 	STS  _point,R30
                 ; 0000 0281         if (data_register>=-10)point=3;
                 _0x143:
0008c0 940e 19f8 	CALL SUBOPT_0x42
0008c2 f018      	BRLO _0x144
0008c3 e0e3      	LDI  R30,LOW(3)
0008c4 93e0 01fa 	STS  _point,R30
                 ; 0000 0282         }
                 _0x144:
                 ; 0000 0283 else
0008c6 c015      	RJMP _0x145
                 _0x141:
                 ; 0000 0284         {
                 ; 0000 0285         if (data_register<10)point=4;
0008c7 940e 1a00 	CALL SUBOPT_0x43
0008c9 f410      	BRSH _0x146
0008ca e0e4      	LDI  R30,LOW(4)
0008cb c00e      	RJMP _0x3B4
                 ; 0000 0286         else if (data_register<100)point=3;
                 _0x146:
0008cc 940e 1a08 	CALL SUBOPT_0x44
0008ce f410      	BRSH _0x148
0008cf e0e3      	LDI  R30,LOW(3)
0008d0 c009      	RJMP _0x3B4
                 ; 0000 0287         else if (data_register<1000)point=2;
                 _0x148:
0008d1 940e 1a10 	CALL SUBOPT_0x45
0008d3 f410      	BRSH _0x14A
0008d4 e0e2      	LDI  R30,LOW(2)
0008d5 c004      	RJMP _0x3B4
                 ; 0000 0288         else if (data_register>=1000)point=1;
                 _0x14A:
0008d6 940e 1a10 	CALL SUBOPT_0x45
0008d8 f018      	BRLO _0x14C
0008d9 e0e1      	LDI  R30,LOW(1)
                 _0x3B4:
0008da 93e0 01fa 	STS  _point,R30
                 ; 0000 0289         }
                 _0x14C:
                 _0x145:
                 ; 0000 028A 
                 ; 0000 028B work_point=point;
0008dc 940e 1a18 	CALL SUBOPT_0x46
                 ; 0000 028C 
                 ; 0000 028D // a2:
                 ; 0000 028E #asm("sei")
0008de 9478      	sei
                 ; 0000 028F //         tis=1;sot=2;des=3;ed=4;
                 ; 0000 0290 //         set_digit_on(tis,sot,des,ed);        set_digit_off(tis,sot,des,ed);
                 ; 0000 0291 //         set_led_on(0,0,0,0,0,0,0,0);         set_led_off(0,0,0,0,0,0,0,0);
                 ; 0000 0292 // //        delay_ms(500);
                 ; 0000 0293 //
                 ; 0000 0294 // while (1);
                 ; 0000 0295 //-------------------------------------------------------------------//
                 ; 0000 0296 //œÓÍ‡Á‡Ú¸ ÓÒÌÓ‚Ì˚Â Ì‡ÒÚÓÈÍË
                 ; 0000 0297 //·ÎÓÍËÓ‚Í‡ ÔÓ ‚ÍÎ˛˜ÂÌË˛
                 ; 0000 0298 //-------------------------------------------------------------------//
                 ; 0000 0299 start_time=sys_time;count_register=1;
0008df 940e 192c 	CALL SUBOPT_0x28
                 ; 0000 029A set_led_on(0,0,0,0,0,0,0,0);         set_led_off(0,0,0,0,0,0,0,0);
0008e1 940e 19bf 	CALL SUBOPT_0x38
0008e3 940e 19bf 	CALL SUBOPT_0x38
0008e5 940e 1a1d 	CALL SUBOPT_0x47
0008e7 940e 1a21 	CALL SUBOPT_0x48
0008e9 940e 19bf 	CALL SUBOPT_0x38
0008eb 940e 1a1d 	CALL SUBOPT_0x47
0008ed 940e 040a 	CALL _set_led_off
                 ; 0000 029B while ((sys_time-start_time)<reg[0][A_11]*1000)
                 _0x14D:
0008ef 940e 1a24 	CALL SUBOPT_0x49
0008f1 937f      	PUSH R23
0008f2 936f      	PUSH R22
0008f3 93ff      	PUSH R31
0008f4 93ef      	PUSH R30
                +
0008f5 e4a4     +LDI R26 , LOW ( _reg + ( 68 ) )
0008f6 e0b0     +LDI R27 , HIGH ( _reg + ( 68 ) )
                 	__POINTW2MN _reg,68
0008f7 940e 1f26 	CALL __EEPROMRDD
0008f9 940e 1992 	CALL SUBOPT_0x33
0008fb 91af      	POP  R26
0008fc 91bf      	POP  R27
0008fd 918f      	POP  R24
0008fe 919f      	POP  R25
0008ff 940e 1f16 	CALL __CDF2
000901 940e 1e69 	CALL __CMPF12
000903 f010      	BRLO PC+3
000904 940c 09ba 	JMP _0x14F
                 ; 0000 029C //while (1)
                 ; 0000 029D         {
                 ; 0000 029E         ed=' ';
000906 940e 1a2d 	CALL SUBOPT_0x4A
                 ; 0000 029F         switch (count_register)
                 ; 0000 02A0                 {
                 ; 0000 02A1                 case 2: tis='”';sot='_';des= 2 ;break;
000908 f421      	BRNE _0x153
000909 ede3      	LDI  R30,LOW(211)
00090a 940e 1a34 	CALL SUBOPT_0x4B
00090c c01b      	RJMP _0x3B5
                 ; 0000 02A2                 case 3: tis= 3 ;sot='_';des= 1 ;break;
                 _0x153:
00090d 30e3      	CPI  R30,LOW(0x3)
00090e f411      	BRNE _0x154
00090f e0e3      	LDI  R30,LOW(3)
000910 c011      	RJMP _0x3B6
                 ; 0000 02A3                 case 4: tis= 3 ;sot='_';des= 2 ;break;
                 _0x154:
000911 30e4      	CPI  R30,LOW(0x4)
000912 f421      	BRNE _0x155
000913 e0e3      	LDI  R30,LOW(3)
000914 940e 1a34 	CALL SUBOPT_0x4B
000916 c011      	RJMP _0x3B5
                 ; 0000 02A4                 case 5: tis='p';sot='_';des='_';break;
                 _0x155:
000917 30e5      	CPI  R30,LOW(0x5)
000918 f419      	BRNE _0x156
000919 940e 1a3b 	CALL SUBOPT_0x4C
00091b c00c      	RJMP _0x3B5
                 ; 0000 02A5                 case 6: tis='c';sot='_';des='_';break;
                 _0x156:
00091c 30e6      	CPI  R30,LOW(0x6)
00091d f419      	BRNE _0x157
00091e 940e 1a42 	CALL SUBOPT_0x4D
000920 c007      	RJMP _0x3B5
                 ; 0000 02A6                 case 1: tis='”';sot='_';des= 1 ;break;
                 _0x157:
                 ; 0000 02A7                 default:tis='”';sot='_';des= 1 ;break;
                 _0x3B7:
000921 ede3      	LDI  R30,LOW(211)
                 _0x3B6:
000922 93e0 01ff 	STS  _tis,R30
000924 e5ef      	LDI  R30,LOW(95)
000925 93e0 01fe 	STS  _sot,R30
000927 e0e1      	LDI  R30,LOW(1)
                 _0x3B5:
000928 93e0 01fd 	STS  _des,R30
                 ; 0000 02A8                 }
                 ; 0000 02A9         set_digit_on(tis,sot,des,ed);        set_digit_off(tis,sot,des,ed);
00092a 940e 1946 	CALL SUBOPT_0x2A
00092c 940e 1953 	CALL SUBOPT_0x2B
00092e 940e 1956 	CALL SUBOPT_0x2C
                 ; 0000 02AA         set_led_on(0,0,0,0,0,0,0,0);         set_led_off(0,0,0,0,0,0,0,0);
000930 940e 1a21 	CALL SUBOPT_0x48
000932 940e 19bf 	CALL SUBOPT_0x38
000934 940e 1a1d 	CALL SUBOPT_0x47
000936 940e 040a 	CALL _set_led_off
                 ; 0000 02AB         delay_ms(500);
000938 efe4      	LDI  R30,LOW(500)
000939 e0f1      	LDI  R31,HIGH(500)
00093a 940e 19d6 	CALL SUBOPT_0x3C
                 ; 0000 02AC 
                 ; 0000 02AD         data_register=reg[0][count_register];
00093c 940e 1a49 	CALL SUBOPT_0x4E
00093e 940e 1a51 	CALL SUBOPT_0x4F
000940 940e 19df 	CALL SUBOPT_0x3E
                 ; 0000 02AE //        if ((data_register>MAX_MIN[count_register,1])||(data_register<MAX_MIN[count_register,0])) data_register=FAKTORY[count_register];//ÔÓ‚ÂÍ‡ „‡ÌË˜Ì˚ı ÁÌ‡˜ÂÌËÈ
                 ; 0000 02AF 
                 ; 0000 02B0 //        save_reg(data_register,count_register);
                 ; 0000 02B1 
                 ; 0000 02B2         switch (count_register)
000942 91e0 021f 	LDS  R30,_count_register
                 ; 0000 02B3                 {
                 ; 0000 02B4                 case 2: count_register=3;point=work_point;break;
000944 30e2      	CPI  R30,LOW(0x2)
000945 f411      	BRNE _0x15D
000946 e0e3      	LDI  R30,LOW(3)
000947 c01c      	RJMP _0x3B8
                 ; 0000 02B5                 case 3: count_register=4;point=1;break;
                 _0x15D:
000948 30e3      	CPI  R30,LOW(0x3)
000949 f429      	BRNE _0x15E
00094a e0e4      	LDI  R30,LOW(4)
00094b 93e0 021f 	STS  _count_register,R30
00094d e0e1      	LDI  R30,LOW(1)
00094e c019      	RJMP _0x3B9
                 ; 0000 02B6                 case 4: count_register=5;point=1;break;
                 _0x15E:
00094f 30e4      	CPI  R30,LOW(0x4)
000950 f429      	BRNE _0x15F
000951 e0e5      	LDI  R30,LOW(5)
000952 93e0 021f 	STS  _count_register,R30
000954 e0e1      	LDI  R30,LOW(1)
000955 c012      	RJMP _0x3B9
                 ; 0000 02B7                 case 5: count_register=6;point=1;break;
                 _0x15F:
000956 30e5      	CPI  R30,LOW(0x5)
000957 f429      	BRNE _0x160
000958 e0e6      	LDI  R30,LOW(6)
000959 93e0 021f 	STS  _count_register,R30
00095b e0e1      	LDI  R30,LOW(1)
00095c c00b      	RJMP _0x3B9
                 ; 0000 02B8                 case 6: count_register=1;point=1;break;
                 _0x160:
00095d 30e6      	CPI  R30,LOW(0x6)
00095e f421      	BRNE _0x161
00095f e0e1      	LDI  R30,LOW(1)
000960 93e0 021f 	STS  _count_register,R30
000962 c005      	RJMP _0x3B9
                 ; 0000 02B9                 case 1: count_register=2;point=work_point;break;
                 _0x161:
                 ; 0000 02BA                 default:count_register=2;point=work_point;break;
                 _0x3BA:
000963 e0e2      	LDI  R30,LOW(2)
                 _0x3B8:
000964 93e0 021f 	STS  _count_register,R30
000966 91e0 01fb 	LDS  R30,_work_point
                 _0x3B9:
000968 93e0 01fa 	STS  _point,R30
                 ; 0000 02BB                 }
                 ; 0000 02BC         hex2dec(data_register);
00096a 940e 1a56 	CALL SUBOPT_0x50
                 ; 0000 02BD         set_digit_on(tis,sot,des,ed);        set_digit_off(tis,sot,des,ed);
00096c 940e 1946 	CALL SUBOPT_0x2A
00096e 940e 1953 	CALL SUBOPT_0x2B
000970 940e 049a 	CALL _set_digit_off
                 ; 0000 02BE         if (point==1)       {set_led_on(0,0,0,0,0,0,0,0);set_led_off(0,0,0,0,0,0,0,0);}
000972 91a0 01fa 	LDS  R26,_point
000974 30a1      	CPI  R26,LOW(0x1)
000975 f459      	BRNE _0x164
000976 940e 19bf 	CALL SUBOPT_0x38
000978 940e 19bf 	CALL SUBOPT_0x38
00097a 940e 1a1d 	CALL SUBOPT_0x47
00097c 940e 1a21 	CALL SUBOPT_0x48
00097e e0e0      	LDI  R30,LOW(0)
00097f 93ea      	ST   -Y,R30
000980 c02d      	RJMP _0x3BB
                 ; 0000 02BF         else if (point==2)  {set_led_on(0,0,0,0,0,0,1,0);set_led_off(0,0,0,0,0,0,1,0);}
                 _0x164:
000981 91a0 01fa 	LDS  R26,_point
000983 30a2      	CPI  R26,LOW(0x2)
000984 f451      	BRNE _0x166
000985 940e 19bf 	CALL SUBOPT_0x38
000987 940e 19bf 	CALL SUBOPT_0x38
000989 940e 1a5e 	CALL SUBOPT_0x51
00098b 940e 19bf 	CALL SUBOPT_0x38
00098d e0e1      	LDI  R30,LOW(1)
00098e c023      	RJMP _0x3BC
                 ; 0000 02C0         else if (point==3)  {set_led_on(0,0,0,0,0,1,0,0);set_led_off(0,0,0,0,0,1,0,0);}
                 _0x166:
00098f 91a0 01fa 	LDS  R26,_point
000991 30a3      	CPI  R26,LOW(0x3)
000992 f461      	BRNE _0x168
000993 940e 19bf 	CALL SUBOPT_0x38
000995 940e 1a1d 	CALL SUBOPT_0x47
000997 940e 1a63 	CALL SUBOPT_0x52
000999 940e 1a21 	CALL SUBOPT_0x48
00099b 940e 1a1d 	CALL SUBOPT_0x47
00099d e0e1      	LDI  R30,LOW(1)
00099e c011      	RJMP _0x3BD
                 ; 0000 02C1         else if (point==4)  {set_led_on(0,0,0,0,1,0,0,0);set_led_off(0,0,0,0,1,0,0,0);}
                 _0x168:
00099f 91a0 01fa 	LDS  R26,_point
0009a1 30a4      	CPI  R26,LOW(0x4)
0009a2 f491      	BRNE _0x16A
0009a3 940e 19bf 	CALL SUBOPT_0x38
0009a5 940e 1a66 	CALL SUBOPT_0x53
0009a7 940e 19bf 	CALL SUBOPT_0x38
0009a9 940e 1a21 	CALL SUBOPT_0x48
0009ab e0e0      	LDI  R30,LOW(0)
0009ac 93ea      	ST   -Y,R30
0009ad e0e1      	LDI  R30,LOW(1)
                 _0x3BB:
0009ae 93ea      	ST   -Y,R30
0009af e0e0      	LDI  R30,LOW(0)
                 _0x3BD:
0009b0 93ea      	ST   -Y,R30
0009b1 e0e0      	LDI  R30,LOW(0)
                 _0x3BC:
0009b2 93ea      	ST   -Y,R30
0009b3 940e 1a6b 	CALL SUBOPT_0x54
                 ; 0000 02C2         delay_ms(500);
                 _0x16A:
0009b5 efe4      	LDI  R30,LOW(500)
0009b6 e0f1      	LDI  R31,HIGH(500)
0009b7 940e 19d6 	CALL SUBOPT_0x3C
                 ; 0000 02C3         }
0009b9 cf35      	RJMP _0x14D
                 _0x14F:
                 ; 0000 02C4 a1:
                 ; 0000 02C5 UBRRH=0x00;UBRRL=0x5f;UCSRB=0xD8;UCSRC=0x86;UCSRA=0x02;
0009ba e0e0      	LDI  R30,LOW(0)
0009bb bde0      	OUT  0x20,R30
0009bc e5ef      	LDI  R30,LOW(95)
0009bd b9e9      	OUT  0x9,R30
0009be ede8      	LDI  R30,LOW(216)
0009bf b9ea      	OUT  0xA,R30
0009c0 e8e6      	LDI  R30,LOW(134)
0009c1 bde0      	OUT  0x20,R30
0009c2 e0e2      	LDI  R30,LOW(2)
0009c3 b9eb      	OUT  0xB,R30
                 ; 0000 02C6 crc=0xffff;
0009c4 940e 191e 	CALL SUBOPT_0x26
                 ; 0000 02C7 power=1;
0009c6 9a93      	SBI  0x12,3
                 ; 0000 02C8 
                 ; 0000 02C9 
                 ; 0000 02CA key_mode_press=0;
0009c7 94e8      	CLT
0009c8 f833      	BLD  R3,3
                 ; 0000 02CB key_plus_press=0;
0009c9 f834      	BLD  R3,4
                 ; 0000 02CC key_mines_press=0;
0009ca f835      	BLD  R3,5
                 ; 0000 02CD key_enter_press=0;
0009cb f836      	BLD  R3,6
                 ; 0000 02CE key_mode_press_switch=0;
0009cc f837      	BLD  R3,7
                 ; 0000 02CF key_plus_press_switch=0;
0009cd f840      	BLD  R4,0
                 ; 0000 02D0 key_minus_press_switch=0;
0009ce f841      	BLD  R4,1
                 ; 0000 02D1 
                 ; 0000 02D2 #asm("sei")
0009cf 9478      	sei
                 ; 0000 02D3 mode=0;
0009d0 e0e0      	LDI  R30,LOW(0)
0009d1 93e0 01f9 	STS  _mode,R30
                 ; 0000 02D4 x=0;
0009d3 93e0 0216 	STS  _x,R30
0009d5 93e0 0217 	STS  _x+1,R30
0009d7 93e0 0218 	STS  _x+2,R30
0009d9 93e0 0219 	STS  _x+3,R30
                 ; 0000 02D5 start_time=sys_time;
0009db 940e 1a6f 	CALL SUBOPT_0x55
                 ; 0000 02D6 k_k=reg[0][A_16];
                +
0009dd e5a8     +LDI R26 , LOW ( _reg + ( 88 ) )
0009de e0b0     +LDI R27 , HIGH ( _reg + ( 88 ) )
                 	__POINTW2MN _reg,88
0009df 940e 1f26 	CALL __EEPROMRDD
                +
0009e1 abea     +STD Y + 50 , R30
0009e2 abfb     +STD Y + 50 + 1 , R31
0009e3 ab6c     +STD Y + 50 + 2 , R22
0009e4 ab7d     +STD Y + 50 + 3 , R23
                 	__PUTD1S 50
                 ; 0000 02D7 
                 ; 0000 02D8 point=ee_point;
0009e5 940e 1925 	CALL SUBOPT_0x27
                 ; 0000 02D9 work_point=point;
0009e7 940e 1a18 	CALL SUBOPT_0x46
                 ; 0000 02DA ti_en=0;
0009e9 94e8      	CLT
0009ea f821      	BLD  R2,1
                 ; 0000 02DB //tmpVal=UBRRL;
                 ; 0000 02DC rx_wr_index=0;
0009eb 24bb      	CLR  R11
                 ; 0000 02DD tx_buffer_begin=0;
0009ec 24dd      	CLR  R13
                 ; 0000 02DE tx_buffer_end=0;
0009ed 24cc      	CLR  R12
                 ; 0000 02DF //-------------------------------------------------------------------//
                 ; 0000 02E0 while (1)
                 _0x16E:
                 ; 0000 02E1         {
                 ; 0000 02E2         #asm("wdr");
0009ee 95a8      	wdr
                 ; 0000 02E3         adc_filter=izm();
0009ef dc8c      	RCALL _izm
                +
0009f0 abee     +STD Y + 54 , R30
0009f1 abff     +STD Y + 54 + 1 , R31
0009f2 af68     +STD Y + 54 + 2 , R22
0009f3 af79     +STD Y + 54 + 3 , R23
                 	__PUTD1S 54
                 ; 0000 02E4 //        adc_filter=1234;
                 ; 0000 02E5         //-------------------------------------------------------------------//
                 ; 0000 02E6         //‡·ÒÓÎ˛ÚÌ‡ˇ ‚ÂÎË˜ËÌ‡
                 ; 0000 02E7         //-------------------------------------------------------------------//
                 ; 0000 02E8         i=reg[0][A_12];
0009f4 940e 18ad 	CALL SUBOPT_0x16
                 ; 0000 02E9         switch (i)
                 ; 0000 02EA                 {
                 ; 0000 02EB                 case 0: adc_value1=adc_filter*k_k*20/3606;break;//4-20mA 20=4.4   =3606 k=20/3606
0009f6 f429      	BRNE _0x174
0009f7 940e 1a79 	CALL SUBOPT_0x56
0009f9 940e 1a84 	CALL SUBOPT_0x57
0009fb c02f      	RJMP _0x3BE
                 ; 0000 02EC                 case 1: adc_value1=adc_filter*k_k* 5/3606;break;//0-5mA   5=4.4   =3606 k= 5/3606
                 _0x174:
0009fc 30e1      	CPI  R30,LOW(0x1)
0009fd f479      	BRNE _0x175
0009fe 940e 1a79 	CALL SUBOPT_0x56
                +
000a00 e0a0     +LDI R26 , LOW ( 0x40A00000 )
000a01 e0b0     +LDI R27 , HIGH ( 0x40A00000 )
000a02 ea80     +LDI R24 , BYTE3 ( 0x40A00000 )
000a03 e490     +LDI R25 , BYTE4 ( 0x40A00000 )
                 	__GETD2N 0x40A00000
000a04 940e 1dd6 	CALL __MULF12
000a06 01df      	MOVW R26,R30
000a07 01cb      	MOVW R24,R22
                +
000a08 e0e0     +LDI R30 , LOW ( 0x45616000 )
000a09 e6f0     +LDI R31 , HIGH ( 0x45616000 )
000a0a e661     +LDI R22 , BYTE3 ( 0x45616000 )
000a0b e475     +LDI R23 , BYTE4 ( 0x45616000 )
                 	__GETD1N 0x45616000
000a0c c01e      	RJMP _0x3BE
                 ; 0000 02ED                 case 2: adc_value1=adc_filter*k_k*20/3606;break;//0-20mA 20=4.4   =3606 k=20/3606
                 _0x175:
000a0d 30e2      	CPI  R30,LOW(0x2)
000a0e f429      	BRNE _0x176
000a0f 940e 1a79 	CALL SUBOPT_0x56
000a11 940e 1a84 	CALL SUBOPT_0x57
000a13 c017      	RJMP _0x3BE
                 ; 0000 02EE                 case 3: adc_value1=adc_filter*k_k*10/3691;break;//0-10V  10=4.506 =3606 k=10/3691
                 _0x176:
000a14 30e3      	CPI  R30,LOW(0x3)
000a15 f439      	BRNE _0x178
000a16 940e 1a79 	CALL SUBOPT_0x56
                +
000a18 e0a0     +LDI R26 , LOW ( 0x41200000 )
000a19 e0b0     +LDI R27 , HIGH ( 0x41200000 )
000a1a e280     +LDI R24 , BYTE3 ( 0x41200000 )
000a1b e491     +LDI R25 , BYTE4 ( 0x41200000 )
                 	__GETD2N 0x41200000
000a1c c006      	RJMP _0x3BF
                 ; 0000 02EF                 default:adc_value1=adc_filter*k_k* 5/3691;break;//0-5V    5=4.506 =3606 k= 5/3691
                 _0x178:
000a1d 940e 1a79 	CALL SUBOPT_0x56
                +
000a1f e0a0     +LDI R26 , LOW ( 0x40A00000 )
000a20 e0b0     +LDI R27 , HIGH ( 0x40A00000 )
000a21 ea80     +LDI R24 , BYTE3 ( 0x40A00000 )
000a22 e490     +LDI R25 , BYTE4 ( 0x40A00000 )
                 	__GETD2N 0x40A00000
                 _0x3BF:
000a23 940e 1dd6 	CALL __MULF12
000a25 01df      	MOVW R26,R30
000a26 01cb      	MOVW R24,R22
                +
000a27 e0e0     +LDI R30 , LOW ( 0x4566B000 )
000a28 ebf0     +LDI R31 , HIGH ( 0x4566B000 )
000a29 e666     +LDI R22 , BYTE3 ( 0x4566B000 )
000a2a e475     +LDI R23 , BYTE4 ( 0x4566B000 )
                 	__GETD1N 0x4566B000
                 _0x3BE:
000a2b 940e 1e24 	CALL __DIVF21
000a2d 93e0 022e 	STS  _adc_value1,R30
000a2f 93f0 022f 	STS  _adc_value1+1,R31
000a31 9360 0230 	STS  _adc_value1+2,R22
000a33 9370 0231 	STS  _adc_value1+3,R23
                 ; 0000 02F0                 }
                 ; 0000 02F1 
                 ; 0000 02F2 
                 ; 0000 02F3 
                 ; 0000 02F4 //        if (reg[0,A_12]<3) adc_value1=adc_filter*k_k/100;
                 ; 0000 02F5 //        else adc_value1=adc_filter*k_k/200;
                 ; 0000 02F6         //-------------------------------------------------------------------//
                 ; 0000 02F7         //ÓÚÌÓÒËÚÂÎ¸Ì‡ˇ ‚ÂÎË˜ËÌ‡
                 ; 0000 02F8         //-------------------------------------------------------------------//
                 ; 0000 02F9         i=reg[0][A_12];
000a35 940e 18ad 	CALL SUBOPT_0x16
                 ; 0000 02FA         switch (i)
                 ; 0000 02FB                 {
                 ; 0000 02FC                 case 0:
000a37 f589      	BRNE _0x17C
                 ; 0000 02FD                     kk=(reg[0][A_07]-reg[0][A_06])/(20-4);
000a38 940e 19da 	CALL SUBOPT_0x3D
000a3a 937f      	PUSH R23
000a3b 936f      	PUSH R22
000a3c 93ff      	PUSH R31
000a3d 93ef      	PUSH R30
000a3e 940e 1a91 	CALL SUBOPT_0x58
000a40 91af      	POP  R26
000a41 91bf      	POP  R27
000a42 918f      	POP  R24
000a43 919f      	POP  R25
000a44 940e 1a96 	CALL SUBOPT_0x59
000a46 01df      	MOVW R26,R30
000a47 01cb      	MOVW R24,R22
                +
000a48 e0e0     +LDI R30 , LOW ( 0x41800000 )
000a49 e0f0     +LDI R31 , HIGH ( 0x41800000 )
000a4a e860     +LDI R22 , BYTE3 ( 0x41800000 )
000a4b e471     +LDI R23 , BYTE4 ( 0x41800000 )
                 	__GETD1N 0x41800000
000a4c 940e 1a9b 	CALL SUBOPT_0x5A
                 ; 0000 02FE                     bb=reg[0][A_06]-kk*4;
000a4e 937f      	PUSH R23
000a4f 936f      	PUSH R22
000a50 93ff      	PUSH R31
000a51 93ef      	PUSH R30
000a52 940e 1aa2 	CALL SUBOPT_0x5B
000a54 940e 1aa7 	CALL SUBOPT_0x5C
000a56 940e 1dd6 	CALL __MULF12
000a58 91af      	POP  R26
000a59 91bf      	POP  R27
000a5a 918f      	POP  R24
000a5b 919f      	POP  R25
000a5c 940e 1a96 	CALL SUBOPT_0x59
000a5e 940e 1aac 	CALL SUBOPT_0x5D
                 ; 0000 02FF                     dop1=4;
000a60 940e 1aa7 	CALL SUBOPT_0x5C
                +
000a62 a3ee     +STD Y + 38 , R30
000a63 a3ff     +STD Y + 38 + 1 , R31
000a64 a768     +STD Y + 38 + 2 , R22
000a65 a779     +STD Y + 38 + 3 , R23
                 	__PUTD1S 38
                 ; 0000 0300                     dop2=20;
000a66 940e 1ab1 	CALL SUBOPT_0x5E
000a68 c08f      	RJMP _0x3C0
                 ; 0000 0301                     break;//4-20mA
                 ; 0000 0302                 case 1:
                 _0x17C:
000a69 30e1      	CPI  R30,LOW(0x1)
000a6a f4d9      	BRNE _0x17D
                 ; 0000 0303                     kk=(reg[0][A_07]-reg[0][A_06])/( 5-0);
000a6b 940e 19da 	CALL SUBOPT_0x3D
000a6d 937f      	PUSH R23
000a6e 936f      	PUSH R22
000a6f 93ff      	PUSH R31
000a70 93ef      	PUSH R30
000a71 940e 1a91 	CALL SUBOPT_0x58
000a73 91af      	POP  R26
000a74 91bf      	POP  R27
000a75 918f      	POP  R24
000a76 919f      	POP  R25
000a77 940e 1a96 	CALL SUBOPT_0x59
000a79 940e 1ab6 	CALL SUBOPT_0x5F
                 ; 0000 0304                     bb=reg[0][A_06]-kk*0;
000a7b 937f      	PUSH R23
000a7c 936f      	PUSH R22
000a7d 93ff      	PUSH R31
000a7e 93ef      	PUSH R30
000a7f 940e 1abd 	CALL SUBOPT_0x60
000a81 91af      	POP  R26
000a82 91bf      	POP  R27
000a83 918f      	POP  R24
000a84 919f      	POP  R25
000a85 c068      	RJMP _0x3C1
                 ; 0000 0305                     dop1=0;
                 ; 0000 0306                     dop2= 5;
                 ; 0000 0307                     break;//0-5mA
                 ; 0000 0308                 case 2:
                 _0x17D:
000a86 30e2      	CPI  R30,LOW(0x2)
000a87 f529      	BRNE _0x17E
                 ; 0000 0309                     kk=(reg[0][A_07]-reg[0][A_06])/(20-0);
000a88 940e 19da 	CALL SUBOPT_0x3D
000a8a 937f      	PUSH R23
000a8b 936f      	PUSH R22
000a8c 93ff      	PUSH R31
000a8d 93ef      	PUSH R30
000a8e 940e 1a91 	CALL SUBOPT_0x58
000a90 91af      	POP  R26
000a91 91bf      	POP  R27
000a92 918f      	POP  R24
000a93 919f      	POP  R25
000a94 940e 1a96 	CALL SUBOPT_0x59
000a96 01df      	MOVW R26,R30
000a97 01cb      	MOVW R24,R22
000a98 940e 1ab1 	CALL SUBOPT_0x5E
000a9a 940e 1a9b 	CALL SUBOPT_0x5A
                 ; 0000 030A                     bb=reg[0][A_06]-kk*0;
000a9c 937f      	PUSH R23
000a9d 936f      	PUSH R22
000a9e 93ff      	PUSH R31
000a9f 93ef      	PUSH R30
000aa0 940e 1abd 	CALL SUBOPT_0x60
000aa2 91af      	POP  R26
000aa3 91bf      	POP  R27
000aa4 918f      	POP  R24
000aa5 919f      	POP  R25
000aa6 940e 1a96 	CALL SUBOPT_0x59
000aa8 940e 1ac5 	CALL SUBOPT_0x61
                 ; 0000 030B                     dop1=0;
                 ; 0000 030C                     dop2=20;
000aaa 940e 1ab1 	CALL SUBOPT_0x5E
000aac c04b      	RJMP _0x3C0
                 ; 0000 030D                     break;//0-20mA
                 ; 0000 030E                 case 3:
                 _0x17E:
000aad 30e3      	CPI  R30,LOW(0x3)
000aae f529      	BRNE _0x180
                 ; 0000 030F                     kk=(reg[0][A_07]-reg[0][A_06])/(10-0);
000aaf 940e 19da 	CALL SUBOPT_0x3D
000ab1 937f      	PUSH R23
000ab2 936f      	PUSH R22
000ab3 93ff      	PUSH R31
000ab4 93ef      	PUSH R30
000ab5 940e 1a91 	CALL SUBOPT_0x58
000ab7 91af      	POP  R26
000ab8 91bf      	POP  R27
000ab9 918f      	POP  R24
000aba 919f      	POP  R25
000abb 940e 1a96 	CALL SUBOPT_0x59
000abd 01df      	MOVW R26,R30
000abe 01cb      	MOVW R24,R22
000abf 940e 1acc 	CALL SUBOPT_0x62
000ac1 940e 1a9b 	CALL SUBOPT_0x5A
                 ; 0000 0310                     bb=reg[0][A_06]-kk*0;
000ac3 937f      	PUSH R23
000ac4 936f      	PUSH R22
000ac5 93ff      	PUSH R31
000ac6 93ef      	PUSH R30
000ac7 940e 1abd 	CALL SUBOPT_0x60
000ac9 91af      	POP  R26
000aca 91bf      	POP  R27
000acb 918f      	POP  R24
000acc 919f      	POP  R25
000acd 940e 1a96 	CALL SUBOPT_0x59
000acf 940e 1ac5 	CALL SUBOPT_0x61
                 ; 0000 0311                     dop1=0;
                 ; 0000 0312                     dop2=10;
000ad1 940e 1acc 	CALL SUBOPT_0x62
000ad3 c024      	RJMP _0x3C0
                 ; 0000 0313                     break;//0-10V
                 ; 0000 0314                 default:
                 _0x180:
                 ; 0000 0315                     kk=(reg[0][A_07]-reg[0][A_06])/( 5-0);
000ad4 940e 19da 	CALL SUBOPT_0x3D
000ad6 937f      	PUSH R23
000ad7 936f      	PUSH R22
000ad8 93ff      	PUSH R31
000ad9 93ef      	PUSH R30
000ada 940e 1a91 	CALL SUBOPT_0x58
000adc 91af      	POP  R26
000add 91bf      	POP  R27
000ade 918f      	POP  R24
000adf 919f      	POP  R25
000ae0 940e 1a96 	CALL SUBOPT_0x59
000ae2 940e 1ab6 	CALL SUBOPT_0x5F
                 ; 0000 0316                     bb=reg[0][A_06]-kk*0;
000ae4 937f      	PUSH R23
000ae5 936f      	PUSH R22
000ae6 93ff      	PUSH R31
000ae7 93ef      	PUSH R30
000ae8 940e 1abd 	CALL SUBOPT_0x60
000aea 91af      	POP  R26
000aeb 91bf      	POP  R27
000aec 918f      	POP  R24
000aed 919f      	POP  R25
                 _0x3C1:
000aee 940e 1f19 	CALL __SWAPD12
000af0 940e 1d7f 	CALL __SUBF12
000af2 940e 1ac5 	CALL SUBOPT_0x61
                 ; 0000 0317                     dop1=0;
                 ; 0000 0318                     dop2= 5;
                +
000af4 e0e0     +LDI R30 , LOW ( 0x40A00000 )
000af5 e0f0     +LDI R31 , HIGH ( 0x40A00000 )
000af6 ea60     +LDI R22 , BYTE3 ( 0x40A00000 )
000af7 e470     +LDI R23 , BYTE4 ( 0x40A00000 )
                 	__GETD1N 0x40A00000
                 _0x3C0:
                +
000af8 a3ea     +STD Y + 34 , R30
000af9 a3fb     +STD Y + 34 + 1 , R31
000afa a36c     +STD Y + 34 + 2 , R22
000afb a37d     +STD Y + 34 + 3 , R23
                 	__PUTD1S 34
                 ; 0000 0319                     break;//0-5V
                 ; 0000 031A                 }
                 ; 0000 031B         adc_value2=adc_value1*kk+bb;
                +
000afc a5ee     +LDD R30 , Y + 46
000afd a5ff     +LDD R31 , Y + 46 + 1
000afe a968     +LDD R22 , Y + 46 + 2
000aff a979     +LDD R23 , Y + 46 + 3
                 	__GETD1S 46
000b00 940e 1ad1 	CALL SUBOPT_0x63
000b02 940e 1ada 	CALL SUBOPT_0x64
                 ; 0000 031C 
                 ; 0000 031D         //-------------------------------------------------------------------//
                 ; 0000 031E         //‡‚‡Ëˇ
                 ; 0000 031F         //-------------------------------------------------------------------//
                 ; 0000 0320 
                 ; 0000 0321         if (adc_value1<(dop1*(1-reg[0][A_08]/100)))//ÔÓÚÂÒÚËÚ¸ Ò adc_value2
000b04 940e 1aeb 	CALL SUBOPT_0x65
000b06 940e 1afc 	CALL SUBOPT_0x66
000b08 940e 1ad1 	CALL SUBOPT_0x63
000b0a 940e 1e69 	CALL __CMPF12
000b0c f458      	BRSH _0x181
                 ; 0000 0322                 {
                 ; 0000 0323                 avaria=1;
000b0d 9468      	SET
000b0e f843      	BLD  R4,3
                 ; 0000 0324                 adc_value2=(dop1*(1-reg[0][A_08]/100))*kk+bb;
000b0f 940e 1aeb 	CALL SUBOPT_0x65
000b11 940e 1afc 	CALL SUBOPT_0x66
000b13 940e 1aa2 	CALL SUBOPT_0x5B
000b15 940e 1ada 	CALL SUBOPT_0x64
                 ; 0000 0325                 }
                 ; 0000 0326         else if (adc_value2>(dop2*(1+reg[0][A_09]/100)))
000b17 c013      	RJMP _0x182
                 _0x181:
000b18 940e 1b03 	CALL SUBOPT_0x67
000b1a 940e 1b1c 	CALL SUBOPT_0x68
000b1c f009      	BREQ PC+2
000b1d f410      	BRCC PC+3
000b1e 940c 0b29 	JMP  _0x183
                 ; 0000 0327                 {
                 ; 0000 0328                 avaria=1;
000b20 9468      	SET
000b21 f843      	BLD  R4,3
                 ; 0000 0329                 adc_value2=(dop2*(1+reg[0][A_09]/100))*kk+bb;
000b22 940e 1b03 	CALL SUBOPT_0x67
000b24 940e 1aa2 	CALL SUBOPT_0x5B
000b26 940e 1ada 	CALL SUBOPT_0x64
                 ; 0000 032A                 }
                 ; 0000 032B         else avaria=0;
000b28 c002      	RJMP _0x184
                 _0x183:
000b29 94e8      	CLT
000b2a f843      	BLD  R4,3
                 ; 0000 032C 
                 ; 0000 032D 
                 ; 0000 032E //         if (adc_value2<(reg[0,A_06]*(1-reg[0,A_08]/100)))
                 ; 0000 032F //                 {avaria=1;adc_value2=reg[0,A_06]*(1-reg[0,A_08]/100);}
                 ; 0000 0330 //         else if (adc_value2>(reg[0,A_07]*(1+reg[0,A_09]/100)))
                 ; 0000 0331 //                 {avaria=1;adc_value2=reg[0,A_07]*(1+reg[0,A_09]/100);}
                 ; 0000 0332 //         else avaria=0;
                 ; 0000 0333 
                 ; 0000 0334         //-------------------------------------------------------------------//
                 ; 0000 0335 
                 ; 0000 0336 
                 ; 0000 0337         //-------------------------------------------------------------------//
                 ; 0000 0338         //ÛÒÚ‡‚Í‡ 1,2
                 ; 0000 0339         //-------------------------------------------------------------------//
                 ; 0000 033A         if ((alarm1==1)&&(alarm_alarm1==1)){
                 _0x184:
                 _0x182:
000b2b fe44      	SBRS R4,4
000b2c c002      	RJMP _0x186
000b2d fc46      	SBRC R4,6
000b2e c001      	RJMP _0x187
                 _0x186:
000b2f c031      	RJMP _0x185
                 _0x187:
                 ; 0000 033B         switch(key_enter_press){
000b30 e0e0      	LDI  R30,0
000b31 fc36      	SBRC R3,6
000b32 e0e1      	LDI  R30,1
                 ; 0000 033C         case 1:
000b33 30e1      	CPI  R30,LOW(0x1)
000b34 f559      	BRNE _0x193
                 ; 0000 033D                 if (adc_value2>gis_val1){//if (adc_value2>(reg[0,Y_01]*(1+reg[0,A_01]/100))) {
000b35 940e 1b27 	CALL SUBOPT_0x69
000b37 f009      	BREQ PC+2
000b38 f410      	BRCC PC+3
000b39 940c 0b4c 	JMP  _0x18C
                 ; 0000 033E                          alarm1=1;
000b3b 9468      	SET
000b3c f844      	BLD  R4,4
                 ; 0000 033F                         gis_val1=(reg[0][Y_01])*(1-reg[0][A_01]/100);}
000b3d 940e 1914 	CALL SUBOPT_0x24
000b3f 937f      	PUSH R23
000b40 936f      	PUSH R22
000b41 93ff      	PUSH R31
000b42 93ef      	PUSH R30
000b43 940e 1b2c 	CALL SUBOPT_0x6A
000b45 91af      	POP  R26
000b46 91bf      	POP  R27
000b47 918f      	POP  R24
000b48 919f      	POP  R25
000b49 940e 1dd6 	CALL __MULF12
000b4b c00e      	RJMP _0x3C2
                 ; 0000 0340                 else
                 _0x18C:
                 ; 0000 0341                         {
                 ; 0000 0342                          alarm1=0;flag_start_pause1=0;
000b4c 940e 1b3d 	CALL SUBOPT_0x6B
                 ; 0000 0343                         if ((reg[0][P___]==0)||(reg[0][P___]==1)&&(reg[0][A_14]==0))alarm_alarm1=0;
000b4e f039      	BREQ _0x18F
000b4f 940e 1b47 	CALL SUBOPT_0x6C
000b51 f419      	BRNE _0x190
000b52 940e 1b4f 	CALL SUBOPT_0x6D
000b54 f009      	BREQ _0x18F
                 _0x190:
000b55 c002      	RJMP _0x18E
                 _0x18F:
000b56 94e8      	CLT
000b57 f846      	BLD  R4,6
                 ; 0000 0344                         gis_val1=(reg[0][Y_01]);
                 _0x18E:
000b58 940e 1914 	CALL SUBOPT_0x24
                 _0x3C2:
                +
000b5a 8fee     +STD Y + 30 , R30
000b5b 8fff     +STD Y + 30 + 1 , R31
000b5c a368     +STD Y + 30 + 2 , R22
000b5d a379     +STD Y + 30 + 3 , R23
                 	__PUTD1S 30
                 ; 0000 0345                         }
                 ; 0000 0346                         key_enter_press=0;
000b5e 94e8      	CLT
000b5f f836      	BLD  R3,6
                 ; 0000 0347                 break;
                 ; 0000 0348         default:      break;}}
                 _0x193:
                 ; 0000 0349         else   {
000b60 c029      	RJMP _0x194
                 _0x185:
                 ; 0000 034A                         if (adc_value2>gis_val1){//if (adc_value2>(reg[0,Y_01]*(1+reg[0,A_01]/100))) {
000b61 940e 1b27 	CALL SUBOPT_0x69
000b63 f009      	BREQ PC+2
000b64 f410      	BRCC PC+3
000b65 940c 0b78 	JMP  _0x195
                 ; 0000 034B                          alarm1=1;
000b67 9468      	SET
000b68 f844      	BLD  R4,4
                 ; 0000 034C                         gis_val1=(reg[0][Y_01])*(1-reg[0][A_01]/100);}
000b69 940e 1914 	CALL SUBOPT_0x24
000b6b 937f      	PUSH R23
000b6c 936f      	PUSH R22
000b6d 93ff      	PUSH R31
000b6e 93ef      	PUSH R30
000b6f 940e 1b2c 	CALL SUBOPT_0x6A
000b71 91af      	POP  R26
000b72 91bf      	POP  R27
000b73 918f      	POP  R24
000b74 919f      	POP  R25
000b75 940e 1dd6 	CALL __MULF12
000b77 c00e      	RJMP _0x3C3
                 ; 0000 034D                         else
                 _0x195:
                 ; 0000 034E                         {
                 ; 0000 034F                          alarm1=0;flag_start_pause1=0;
000b78 940e 1b3d 	CALL SUBOPT_0x6B
                 ; 0000 0350                         if ((reg[0][P___]==0)||(reg[0][P___]==1)&&(reg[0][A_14]==0))alarm_alarm1=0;
000b7a f039      	BREQ _0x198
000b7b 940e 1b47 	CALL SUBOPT_0x6C
000b7d f419      	BRNE _0x199
000b7e 940e 1b4f 	CALL SUBOPT_0x6D
000b80 f009      	BREQ _0x198
                 _0x199:
000b81 c002      	RJMP _0x197
                 _0x198:
000b82 94e8      	CLT
000b83 f846      	BLD  R4,6
                 ; 0000 0351                         gis_val1=(reg[0][Y_01]);
                 _0x197:
000b84 940e 1914 	CALL SUBOPT_0x24
                 _0x3C3:
                +
000b86 8fee     +STD Y + 30 , R30
000b87 8fff     +STD Y + 30 + 1 , R31
000b88 a368     +STD Y + 30 + 2 , R22
000b89 a379     +STD Y + 30 + 3 , R23
                 	__PUTD1S 30
                 ; 0000 0352                         }
                 ; 0000 0353                        // key_enter_press_switch1=0;
                 ; 0000 0354                 }
                 _0x194:
                 ; 0000 0355         if ((alarm2==1)&&(alarm_alarm2==1)){
000b8a fe45      	SBRS R4,5
000b8b c002      	RJMP _0x19D
000b8c fc47      	SBRC R4,7
000b8d c001      	RJMP _0x19E
                 _0x19D:
000b8e c031      	RJMP _0x19C
                 _0x19E:
                 ; 0000 0356         switch(key_enter_press){
000b8f e0e0      	LDI  R30,0
000b90 fc36      	SBRC R3,6
000b91 e0e1      	LDI  R30,1
                 ; 0000 0357         case 1:
000b92 30e1      	CPI  R30,LOW(0x1)
000b93 f559      	BRNE _0x1AA
                 ; 0000 0358                         if (adc_value2>gis_val2)//if (adc_value2>(reg[0,Y_02]*(1+reg[0,A_01]/100)))
000b94 940e 1b56 	CALL SUBOPT_0x6E
000b96 f009      	BREQ PC+2
000b97 f410      	BRCC PC+3
000b98 940c 0bab 	JMP  _0x1A3
                 ; 0000 0359                                 {alarm2=1;
000b9a 9468      	SET
000b9b f845      	BLD  R4,5
                 ; 0000 035A                                 gis_val2=(reg[0][Y_02])*(1-reg[0][A_01]/100);}
000b9c 940e 1919 	CALL SUBOPT_0x25
000b9e 937f      	PUSH R23
000b9f 936f      	PUSH R22
000ba0 93ff      	PUSH R31
000ba1 93ef      	PUSH R30
000ba2 940e 1b2c 	CALL SUBOPT_0x6A
000ba4 91af      	POP  R26
000ba5 91bf      	POP  R27
000ba6 918f      	POP  R24
000ba7 919f      	POP  R25
000ba8 940e 1dd6 	CALL __MULF12
000baa c00e      	RJMP _0x3C4
                 ; 0000 035B                         else
                 _0x1A3:
                 ; 0000 035C                                 {
                 ; 0000 035D                                 alarm2=0;flag_start_pause2=0;
000bab 940e 1b5b 	CALL SUBOPT_0x6F
                 ; 0000 035E                                 if ((reg[0][P___]==0)||(reg[0][P___]==1)&&(reg[0][A_15]==0))alarm_alarm2=0;
000bad f039      	BREQ _0x1A6
000bae 940e 1b47 	CALL SUBOPT_0x6C
000bb0 f419      	BRNE _0x1A7
000bb1 940e 1b65 	CALL SUBOPT_0x70
000bb3 f009      	BREQ _0x1A6
                 _0x1A7:
000bb4 c002      	RJMP _0x1A5
                 _0x1A6:
000bb5 94e8      	CLT
000bb6 f847      	BLD  R4,7
                 ; 0000 035F                                 gis_val2=(reg[0][Y_02]);
                 _0x1A5:
000bb7 940e 1919 	CALL SUBOPT_0x25
                 _0x3C4:
                +
000bb9 8fea     +STD Y + 26 , R30
000bba 8ffb     +STD Y + 26 + 1 , R31
000bbb 8f6c     +STD Y + 26 + 2 , R22
000bbc 8f7d     +STD Y + 26 + 3 , R23
                 	__PUTD1S 26
                 ; 0000 0360                                 }
                 ; 0000 0361                        key_enter_press=0;
000bbd 94e8      	CLT
000bbe f836      	BLD  R3,6
                 ; 0000 0362                 break;
                 ; 0000 0363         default: break;}}
                 _0x1AA:
                 ; 0000 0364         else {
000bbf c029      	RJMP _0x1AB
                 _0x19C:
                 ; 0000 0365                 if (adc_value2>gis_val2)//if (adc_value2>(reg[0,Y_02]*(1+reg[0,A_01]/100)))
000bc0 940e 1b56 	CALL SUBOPT_0x6E
000bc2 f009      	BREQ PC+2
000bc3 f410      	BRCC PC+3
000bc4 940c 0bd7 	JMP  _0x1AC
                 ; 0000 0366                    {alarm2=1;
000bc6 9468      	SET
000bc7 f845      	BLD  R4,5
                 ; 0000 0367                    gis_val2=(reg[0][Y_02])*(1-reg[0][A_01]/100);}
000bc8 940e 1919 	CALL SUBOPT_0x25
000bca 937f      	PUSH R23
000bcb 936f      	PUSH R22
000bcc 93ff      	PUSH R31
000bcd 93ef      	PUSH R30
000bce 940e 1b2c 	CALL SUBOPT_0x6A
000bd0 91af      	POP  R26
000bd1 91bf      	POP  R27
000bd2 918f      	POP  R24
000bd3 919f      	POP  R25
000bd4 940e 1dd6 	CALL __MULF12
000bd6 c00e      	RJMP _0x3C5
                 ; 0000 0368                 else
                 _0x1AC:
                 ; 0000 0369                    {
                 ; 0000 036A                    alarm2=0;flag_start_pause2=0;
000bd7 940e 1b5b 	CALL SUBOPT_0x6F
                 ; 0000 036B                    if ((reg[0][P___]==0)||(reg[0][P___]==1)&&(reg[0][A_15]==0))alarm_alarm2=0;
000bd9 f039      	BREQ _0x1AF
000bda 940e 1b47 	CALL SUBOPT_0x6C
000bdc f419      	BRNE _0x1B0
000bdd 940e 1b65 	CALL SUBOPT_0x70
000bdf f009      	BREQ _0x1AF
                 _0x1B0:
000be0 c002      	RJMP _0x1AE
                 _0x1AF:
000be1 94e8      	CLT
000be2 f847      	BLD  R4,7
                 ; 0000 036C                    gis_val2=(reg[0][Y_02]);
                 _0x1AE:
000be3 940e 1919 	CALL SUBOPT_0x25
                 _0x3C5:
                +
000be5 8fea     +STD Y + 26 , R30
000be6 8ffb     +STD Y + 26 + 1 , R31
000be7 8f6c     +STD Y + 26 + 2 , R22
000be8 8f7d     +STD Y + 26 + 3 , R23
                 	__PUTD1S 26
                 ; 0000 036D                    }
                 ; 0000 036E                // key_enter_press_switch1=0;
                 ; 0000 036F               }
                 _0x1AB:
                 ; 0000 0370         //-------------------------------------------------------------------//
                 ; 0000 0371         //
                 ; 0000 0372         //‰Ó·‡‚ËÚ¸ Ï‡ÒÍÛ Ë ·ÎÓÍËÓ‚ÍÛ
                 ; 0000 0373         //
                 ; 0000 0374         //-------------------------------------------------------------------//
                 ; 0000 0375 
                 ; 0000 0376 
                 ; 0000 0377 
                 ; 0000 0378         //-------------------------------------------------------------------//
                 ; 0000 0379 
                 ; 0000 037A         //-------------------------------------------------------------------//
                 ; 0000 037B         //Ô‡ÛÁ‡ 1,2
                 ; 0000 037C         //-------------------------------------------------------------------//
                 ; 0000 037D         if (alarm_alarm1==1){relay_alarm1=1;}
000be9 fe46      	SBRS R4,6
000bea c002      	RJMP _0x1B3
000beb 9ac0      	SBI  0x18,0
                 ; 0000 037E         else relay_alarm1=0;
000bec c001      	RJMP _0x1B6
                 _0x1B3:
000bed 98c0      	CBI  0x18,0
                 ; 0000 037F         if (alarm_alarm2==1){relay_alarm2=1;}
                 _0x1B6:
000bee fe47      	SBRS R4,7
000bef c002      	RJMP _0x1B9
000bf0 9ac1      	SBI  0x18,1
                 ; 0000 0380         else relay_alarm2=0;
000bf1 c001      	RJMP _0x1BC
                 _0x1B9:
000bf2 98c1      	CBI  0x18,1
                 ; 0000 0381 
                 ; 0000 0382         if ((flag_start_pause1==1))//&&(alarm_alarm1==0))
                 _0x1BC:
000bf3 fef0      	SBRS R15,0
000bf4 c01f      	RJMP _0x1BF
                 ; 0000 0383                 {
                 ; 0000 0384                 if ((sys_time-time_pause1)>(reg[0][Z_01]*800)){alarm_alarm1=1;}
                +
000bf5 01fe     +MOVW R30 , R28
000bf6 5bee     +SUBI R30 , LOW ( - 66 )
000bf7 4fff     +SBCI R31 , HIGH ( - 66 )
000bf8 9001     +LD R0 , Z +
000bf9 9011     +LD R1 , Z +
000bfa 9161     +LD R22 , Z +
000bfb 8170     +LD R23 , Z
000bfc 01f0     +MOVW R30 , R0
                 	__GETD1SX 66
000bfd 940e 1b6c 	CALL SUBOPT_0x71
000bff 937f      	PUSH R23
000c00 936f      	PUSH R22
000c01 93ff      	PUSH R31
000c02 93ef      	PUSH R30
                +
000c03 e0ac     +LDI R26 , LOW ( _reg + ( 12 ) )
000c04 e0b0     +LDI R27 , HIGH ( _reg + ( 12 ) )
                 	__POINTW2MN _reg,12
000c05 940e 1b77 	CALL SUBOPT_0x72
000c07 91af      	POP  R26
000c08 91bf      	POP  R27
000c09 918f      	POP  R24
000c0a 919f      	POP  R25
000c0b 940e 1e69 	CALL __CMPF12
000c0d f009      	BREQ PC+2
000c0e f410      	BRCC PC+3
000c0f 940c 0c13 	JMP  _0x1C0
000c11 9468      	SET
000c12 f846      	BLD  R4,6
                 ; 0000 0385                 }
                 _0x1C0:
                 ; 0000 0386         else if (alarm1==1)
000c13 c02b      	RJMP _0x1C1
                 _0x1BF:
000c14 fe44      	SBRS R4,4
000c15 c029      	RJMP _0x1C2
                 ; 0000 0387                 {
                 ; 0000 0388                 if ( ( (reg[0][C___]==1) && (reg[0][A_02]==1) ) ){signal=1;buzer_buzer_en=1;}
000c16 940e 1b80 	CALL SUBOPT_0x73
000c18 940e 1b47 	CALL SUBOPT_0x6C
000c1a f429      	BRNE _0x1C4
000c1b 940e 1b85 	CALL SUBOPT_0x74
000c1d 940e 1b47 	CALL SUBOPT_0x6C
000c1f f009      	BREQ _0x1C5
                 _0x1C4:
000c20 c003      	RJMP _0x1C3
                 _0x1C5:
000c21 9468      	SET
000c22 f852      	BLD  R5,2
000c23 f826      	BLD  R2,6
                 ; 0000 0389                 if ( (reg[0][P___]==0) || ( (reg[0][P___]==1) && (reg[0][A_03]==1) ) )
                 _0x1C3:
000c24 940e 1b8a 	CALL SUBOPT_0x75
000c26 f059      	BREQ _0x1C7
000c27 940e 1b47 	CALL SUBOPT_0x6C
000c29 f439      	BRNE _0x1C8
                +
000c2a e2a4     +LDI R26 , LOW ( _reg + ( 36 ) )
000c2b e0b0     +LDI R27 , HIGH ( _reg + ( 36 ) )
                 	__POINTW2MN _reg,36
000c2c 940e 1f26 	CALL __EEPROMRDD
000c2e 940e 1b47 	CALL SUBOPT_0x6C
000c30 f009      	BREQ _0x1C7
                 _0x1C8:
000c31 c00d      	RJMP _0x1C6
                 _0x1C7:
                 ; 0000 038A                         {
                 ; 0000 038B                         time_pause1=sys_time;
000c32 940e 183b 	CALL SUBOPT_0x3
000c34 940e 1d4c 	CALL __CDF1
                +
000c36 01de     +MOVW R26 , R28
000c37 5bae     +SUBI R26 , LOW ( - 66 )
000c38 4fbf     +SBCI R27 , HIGH ( - 66 )
000c39 93ed     +ST X + , R30
000c3a 93fd     +ST X + , R31
000c3b 936d     +ST X + , R22
000c3c 937c     +ST X , R23
                 	__PUTD1SX 66
                 ; 0000 038C                         flag_start_pause1=1;
000c3d 9468      	SET
000c3e f8f0      	BLD  R15,0
                 ; 0000 038D                         }
                 ; 0000 038E                 }
                 _0x1C6:
                 ; 0000 038F         if ((alarm1==0)&&(alarm2==0))
                 _0x1C2:
                 _0x1C1:
000c3f e0a0      	LDI  R26,0
000c40 fc44      	SBRC R4,4
000c41 e0a1      	LDI  R26,1
000c42 30a0      	CPI  R26,LOW(0x0)
000c43 f429      	BRNE _0x1CC
000c44 e0a0      	LDI  R26,0
000c45 fc45      	SBRC R4,5
000c46 e0a1      	LDI  R26,1
000c47 30a0      	CPI  R26,LOW(0x0)
000c48 f009      	BREQ _0x1CD
                 _0x1CC:
000c49 c025      	RJMP _0x1CB
                 _0x1CD:
                 ; 0000 0390                 {
                 ; 0000 0391                 if (((alarm_alarm1==0)||((alarm_alarm1==1)&&(reg[0][A_14]==0)))&&((alarm_alarm2==0)||((alarm_alarm2==1)&&(reg[0][A_15]==0)))){signal=0;buzer_buzer_en=0;}
000c4a 940e 1868 	CALL SUBOPT_0xB
000c4c f031      	BREQ _0x1CF
000c4d fe46      	SBRS R4,6
000c4e c003      	RJMP _0x1D0
000c4f 940e 1b4f 	CALL SUBOPT_0x6D
000c51 f009      	BREQ _0x1CF
                 _0x1D0:
000c52 c00a      	RJMP _0x1D3
                 _0x1CF:
000c53 940e 1863 	CALL SUBOPT_0xA
000c55 f031      	BREQ _0x1D4
000c56 fe47      	SBRS R4,7
000c57 c003      	RJMP _0x1D5
000c58 940e 1b65 	CALL SUBOPT_0x70
000c5a f009      	BREQ _0x1D4
                 _0x1D5:
000c5b c001      	RJMP _0x1D3
                 _0x1D4:
000c5c c001      	RJMP _0x1D8
                 _0x1D3:
000c5d c003      	RJMP _0x1CE
                 _0x1D8:
000c5e 94e8      	CLT
000c5f f852      	BLD  R5,2
000c60 f826      	BLD  R2,6
                 ; 0000 0392                 if ((blok1==0)&&(blok2==0)){signal=0;buzer_buzer_en=0;}
                 _0x1CE:
000c61 e0a0      	LDI  R26,0
000c62 fc50      	SBRC R5,0
000c63 e0a1      	LDI  R26,1
000c64 30a0      	CPI  R26,LOW(0x0)
000c65 f429      	BRNE _0x1DA
000c66 e0a0      	LDI  R26,0
000c67 fc51      	SBRC R5,1
000c68 e0a1      	LDI  R26,1
000c69 30a0      	CPI  R26,LOW(0x0)
000c6a f009      	BREQ _0x1DB
                 _0x1DA:
000c6b c003      	RJMP _0x1D9
                 _0x1DB:
000c6c 94e8      	CLT
000c6d f852      	BLD  R5,2
000c6e f826      	BLD  R2,6
                 ; 0000 0393                 }
                 _0x1D9:
                 ; 0000 0394         if (reg[0][C___]==0)buzer_buzer_en=0;
                 _0x1CB:
000c6f 940e 1b80 	CALL SUBOPT_0x73
000c71 940e 1f5b 	CALL __CPD10
000c73 f411      	BRNE _0x1DC
000c74 94e8      	CLT
000c75 f826      	BLD  R2,6
                 ; 0000 0395         if ((flag_start_pause2==1))//&&(alarm_alarm2==0))
                 _0x1DC:
000c76 fef1      	SBRS R15,1
000c77 c01f      	RJMP _0x1DD
                 ; 0000 0396                 {
                 ; 0000 0397                 if ((sys_time-time_pause2)>(reg[0][Z_02]*800))alarm_alarm2=1;
                +
000c78 01fe     +MOVW R30 , R28
000c79 5ce2     +SUBI R30 , LOW ( - 62 )
000c7a 4fff     +SBCI R31 , HIGH ( - 62 )
000c7b 9001     +LD R0 , Z +
000c7c 9011     +LD R1 , Z +
000c7d 9161     +LD R22 , Z +
000c7e 8170     +LD R23 , Z
000c7f 01f0     +MOVW R30 , R0
                 	__GETD1SX 62
000c80 940e 1b6c 	CALL SUBOPT_0x71
000c82 937f      	PUSH R23
000c83 936f      	PUSH R22
000c84 93ff      	PUSH R31
000c85 93ef      	PUSH R30
                +
000c86 e1a0     +LDI R26 , LOW ( _reg + ( 16 ) )
000c87 e0b0     +LDI R27 , HIGH ( _reg + ( 16 ) )
                 	__POINTW2MN _reg,16
000c88 940e 1b77 	CALL SUBOPT_0x72
000c8a 91af      	POP  R26
000c8b 91bf      	POP  R27
000c8c 918f      	POP  R24
000c8d 919f      	POP  R25
000c8e 940e 1e69 	CALL __CMPF12
000c90 f009      	BREQ PC+2
000c91 f410      	BRCC PC+3
000c92 940c 0c96 	JMP  _0x1DE
000c94 9468      	SET
000c95 f847      	BLD  R4,7
                 ; 0000 0398                 }
                 _0x1DE:
                 ; 0000 0399         else if (alarm2==1)
000c96 c02b      	RJMP _0x1DF
                 _0x1DD:
000c97 fe45      	SBRS R4,5
000c98 c029      	RJMP _0x1E0
                 ; 0000 039A                 {
                 ; 0000 039B                 if (((reg[0][C___]==1)&&(reg[0][A_02]==2))){signal=1;buzer_buzer_en=1;}
000c99 940e 1b80 	CALL SUBOPT_0x73
000c9b 940e 1b47 	CALL SUBOPT_0x6C
000c9d f429      	BRNE _0x1E2
000c9e 940e 1b85 	CALL SUBOPT_0x74
000ca0 940e 1b91 	CALL SUBOPT_0x76
000ca2 f009      	BREQ _0x1E3
                 _0x1E2:
000ca3 c003      	RJMP _0x1E1
                 _0x1E3:
000ca4 9468      	SET
000ca5 f852      	BLD  R5,2
000ca6 f826      	BLD  R2,6
                 ; 0000 039C                 if ((reg[0][P___]==0)||((reg[0][P___]==1)&&(reg[0][A_04]==1)))
                 _0x1E1:
000ca7 940e 1b8a 	CALL SUBOPT_0x75
000ca9 f059      	BREQ _0x1E5
000caa 940e 1b47 	CALL SUBOPT_0x6C
000cac f439      	BRNE _0x1E6
                +
000cad e2a8     +LDI R26 , LOW ( _reg + ( 40 ) )
000cae e0b0     +LDI R27 , HIGH ( _reg + ( 40 ) )
                 	__POINTW2MN _reg,40
000caf 940e 1f26 	CALL __EEPROMRDD
000cb1 940e 1b47 	CALL SUBOPT_0x6C
000cb3 f009      	BREQ _0x1E5
                 _0x1E6:
000cb4 c00d      	RJMP _0x1E4
                 _0x1E5:
                 ; 0000 039D                         {
                 ; 0000 039E                         time_pause2=sys_time;
000cb5 940e 183b 	CALL SUBOPT_0x3
000cb7 940e 1d4c 	CALL __CDF1
                +
000cb9 01de     +MOVW R26 , R28
000cba 5ca2     +SUBI R26 , LOW ( - 62 )
000cbb 4fbf     +SBCI R27 , HIGH ( - 62 )
000cbc 93ed     +ST X + , R30
000cbd 93fd     +ST X + , R31
000cbe 936d     +ST X + , R22
000cbf 937c     +ST X , R23
                 	__PUTD1SX 62
                 ; 0000 039F                         flag_start_pause2=1;
000cc0 9468      	SET
000cc1 f8f1      	BLD  R15,1
                 ; 0000 03A0                         }
                 ; 0000 03A1                 }
                 _0x1E4:
                 ; 0000 03A2         //-------------------------------------------------------------------//
                 ; 0000 03A3 
                 ; 0000 03A4 
                 ; 0000 03A5 
                 ; 0000 03A6 
                 ; 0000 03A7 
                 ; 0000 03A8 
                 ; 0000 03A9 
                 ; 0000 03AA 
                 ; 0000 03AB 
                 ; 0000 03AC 
                 ; 0000 03AD 
                 ; 0000 03AE 
                 ; 0000 03AF         //-------------------------------------------------------------------//
                 ; 0000 03B0         //      Ã≈Õﬁ
                 ; 0000 03B1         //-------------------------------------------------------------------//
                 ; 0000 03B2         //‚ÓÁ‚‡Ú ËÁ ÏÂÌ˛
                 ; 0000 03B3         //-------------------------------------------------------------------//
                 ; 0000 03B4         if (((sys_time-start_time_mode)>reg[0][A_13]*1000)){mode=0;f_m1=0;}
                 _0x1E0:
                 _0x1DF:
000cc2 91a0 0225 	LDS  R26,_start_time_mode
000cc4 91b0 0226 	LDS  R27,_start_time_mode+1
000cc6 9180 0227 	LDS  R24,_start_time_mode+2
000cc8 9190 0228 	LDS  R25,_start_time_mode+3
000cca 940e 18c0 	CALL SUBOPT_0x18
000ccc 937f      	PUSH R23
000ccd 936f      	PUSH R22
000cce 93ff      	PUSH R31
000ccf 93ef      	PUSH R30
                +
000cd0 e4ac     +LDI R26 , LOW ( _reg + ( 76 ) )
000cd1 e0b0     +LDI R27 , HIGH ( _reg + ( 76 ) )
                 	__POINTW2MN _reg,76
000cd2 940e 1f26 	CALL __EEPROMRDD
000cd4 940e 1992 	CALL SUBOPT_0x33
000cd6 91af      	POP  R26
000cd7 91bf      	POP  R27
000cd8 918f      	POP  R24
000cd9 919f      	POP  R25
000cda 940e 1f16 	CALL __CDF2
000cdc 940e 1e69 	CALL __CMPF12
000cde f009      	BREQ PC+2
000cdf f410      	BRCC PC+3
000ce0 940c 0ce7 	JMP  _0x1E9
000ce2 e0e0      	LDI  R30,LOW(0)
000ce3 93e0 01f9 	STS  _mode,R30
000ce5 94e8      	CLT
000ce6 f8f2      	BLD  R15,2
                 ; 0000 03B5         //-------------------------------------------------------------------//
                 ; 0000 03B6 
                 ; 0000 03B7 
                 ; 0000 03B8 
                 ; 0000 03B9         if ((key_enter_press_switch==1)&&(mode==0)){key_enter_press_switch=0;key_enter_press_switch1=1;}
                 _0x1E9:
000ce7 fe42      	SBRS R4,2
000ce8 c004      	RJMP _0x1EB
000ce9 91a0 01f9 	LDS  R26,_mode
000ceb 30a0      	CPI  R26,LOW(0x0)
000cec f009      	BREQ _0x1EC
                 _0x1EB:
000ced c004      	RJMP _0x1EA
                 _0x1EC:
000cee 94e8      	CLT
000cef f842      	BLD  R4,2
000cf0 9468      	SET
000cf1 f8f3      	BLD  R15,3
                 ; 0000 03BA 
                 ; 0000 03BB 
                 ; 0000 03BC         //-------------------------------------------------------------------//
                 ; 0000 03BD         //‚ıÓ‰ ‚ ËÌÊÂÌÂÌÓÂ ÏÂÌ˛
                 ; 0000 03BE         //-------------------------------------------------------------------//
                 ; 0000 03BF         if ((key_enter_press_switch1==1)&&(key_enter==1)&&(key_mode==0))
                 _0x1EA:
000cf2 fef3      	SBRS R15,3
000cf3 c007      	RJMP _0x1EE
000cf4 fe32      	SBRS R3,2
000cf5 c005      	RJMP _0x1EE
000cf6 e0a0      	LDI  R26,0
000cf7 fc27      	SBRC R2,7
000cf8 e0a1      	LDI  R26,1
000cf9 30a0      	CPI  R26,LOW(0x0)
000cfa f009      	BREQ _0x1EF
                 _0x1EE:
000cfb c00c      	RJMP _0x1ED
                 _0x1EF:
                 ; 0000 03C0                 {if ((sys_time-whait_time)>1500){mode=10;start_time_mode=sys_time;key_enter_press_switch1=0;}}
000cfc 940e 1b99 	CALL SUBOPT_0x77
000cfe 940e 1ba2 	CALL SUBOPT_0x78
000d00 f03c      	BRLT _0x1F0
000d01 e0ea      	LDI  R30,LOW(10)
000d02 93e0 01f9 	STS  _mode,R30
000d04 940e 1baa 	CALL SUBOPT_0x79
000d06 94e8      	CLT
000d07 f8f3      	BLD  R15,3
                 _0x1F0:
                 ; 0000 03C1         //-------------------------------------------------------------------//
                 ; 0000 03C2 
                 ; 0000 03C3         //-------------------------------------------------------------------//
                 ; 0000 03C4         //ŒÊË‰‡ÌËÂ ‚˚ÍÎ˛˜ÂÌËˇ ÔËÚ‡ÌËˇ
                 ; 0000 03C5         //-------------------------------------------------------------------//
                 ; 0000 03C6         if ((key_enter_press_switch1==1)&&(key_enter==1)&&(key_mode==1)&&(key_2==1)&&(key_3==1))
                 _0x1ED:
000d08 fef3      	SBRS R15,3
000d09 c008      	RJMP _0x1F2
000d0a fe32      	SBRS R3,2
000d0b c006      	RJMP _0x1F2
000d0c fe27      	SBRS R2,7
000d0d c004      	RJMP _0x1F2
000d0e 9b99      	SBIS 0x13,1
000d0f c002      	RJMP _0x1F2
000d10 9986      	SBIC 0x10,6
000d11 c001      	RJMP _0x1F3
                 _0x1F2:
000d12 c006      	RJMP _0x1F1
                 _0x1F3:
                 ; 0000 03C7                 {if ((sys_time-whait_time)>1500) {goto power_off;}}
000d13 940e 1b99 	CALL SUBOPT_0x77
000d15 940e 1ba2 	CALL SUBOPT_0x78
000d17 f00c      	BRLT _0x1F4
000d18 cb4b      	RJMP _0x12F
                 _0x1F4:
                 ; 0000 03C8         //-------------------------------------------------------------------//
                 ; 0000 03C9 
                 ; 0000 03CA         //-------------------------------------------------------------------//
                 ; 0000 03CB         //˜ÚÓ ÔÓÍ‡Á˚‚‡Ú¸ ‚ mode=0
                 ; 0000 03CC         //-------------------------------------------------------------------//
                 ; 0000 03CD         if (mode==0)
                 _0x1F1:
000d19 91e0 01f9 	LDS  R30,_mode
000d1b 30e0      	CPI  R30,0
000d1c f011      	BREQ PC+3
000d1d 940c 0d9d 	JMP _0x1F5
                 ; 0000 03CE                 {
                 ; 0000 03CF                 count_register=1;
000d1f e0e1      	LDI  R30,LOW(1)
000d20 93e0 021f 	STS  _count_register,R30
                 ; 0000 03D0                 point=work_point;
000d22 91e0 01fb 	LDS  R30,_work_point
000d24 93e0 01fa 	STS  _point,R30
                 ; 0000 03D1                 if (((alarm_alarm1==0)||((alarm_alarm1==1)&&(reg[0][A_14]==0)))&&((alarm_alarm2==0)||((alarm_alarm2==1)&&(reg[0][A_15]==0))))
000d26 940e 1868 	CALL SUBOPT_0xB
000d28 f031      	BREQ _0x1F7
000d29 fe46      	SBRS R4,6
000d2a c003      	RJMP _0x1F8
000d2b 940e 1b4f 	CALL SUBOPT_0x6D
000d2d f009      	BREQ _0x1F7
                 _0x1F8:
000d2e c00a      	RJMP _0x1FB
                 _0x1F7:
000d2f 940e 1863 	CALL SUBOPT_0xA
000d31 f031      	BREQ _0x1FC
000d32 fe47      	SBRS R4,7
000d33 c003      	RJMP _0x1FD
000d34 940e 1b65 	CALL SUBOPT_0x70
000d36 f009      	BREQ _0x1FC
                 _0x1FD:
000d37 c001      	RJMP _0x1FB
                 _0x1FC:
000d38 c001      	RJMP _0x200
                 _0x1FB:
000d39 c025      	RJMP _0x1F6
                 _0x200:
                 ; 0000 03D2                         {
                 ; 0000 03D3                         if (reg[0][A_05]==0)adc_value3=adc_value1;
000d3a 940e 1bb4 	CALL SUBOPT_0x7A
000d3c 940e 1f5b 	CALL __CPD10
000d3e f419      	BRNE _0x201
000d3f 940e 1bb9 	CALL SUBOPT_0x7B
000d41 c015      	RJMP _0x3C6
                 ; 0000 03D4                         else if (reg[0][A_05]==2){adc_value3=buf[buf_end];point=1;}
                 _0x201:
000d42 940e 1bb4 	CALL SUBOPT_0x7A
000d44 940e 1b91 	CALL SUBOPT_0x76
000d46 f471      	BRNE _0x203
000d47 940e 18c4 	CALL SUBOPT_0x19
000d49 940e 1900 	CALL SUBOPT_0x20
000d4b e3a6      	LDI  R26,LOW(_adc_value3)
000d4c e0b2      	LDI  R27,HIGH(_adc_value3)
000d4d 940e 190a 	CALL SUBOPT_0x22
000d4f 940e 1ef8 	CALL __PUTDP1
000d51 e0e1      	LDI  R30,LOW(1)
000d52 93e0 01fa 	STS  _point,R30
                 ; 0000 03D5                         else adc_value3=adc_value2;
000d54 c00a      	RJMP _0x204
                 _0x203:
000d55 940e 1bc2 	CALL SUBOPT_0x7C
                 _0x3C6:
000d57 93e0 0236 	STS  _adc_value3,R30
000d59 93f0 0237 	STS  _adc_value3+1,R31
000d5b 9360 0238 	STS  _adc_value3+2,R22
000d5d 9370 0239 	STS  _adc_value3+3,R23
                 ; 0000 03D6                         }
                 _0x204:
                 ; 0000 03D7                 hex2dec(adc_value3);
                 _0x1F6:
000d5f 940e 1bcb 	CALL SUBOPT_0x7D
                 ; 0000 03D8                 if (point==1)       {set_led_on(0,0,0,1,0,0,0,0);set_led_off(0,0,0,1,0,0,0,0);}
000d61 f451      	BRNE _0x205
000d62 940e 19bf 	CALL SUBOPT_0x38
000d64 940e 1bdb 	CALL SUBOPT_0x7E
000d66 940e 1bde 	CALL SUBOPT_0x7F
000d68 e0e1      	LDI  R30,LOW(1)
000d69 93ea      	ST   -Y,R30
000d6a e0e0      	LDI  R30,LOW(0)
000d6b c02a      	RJMP _0x3C7
                 ; 0000 03D9                 else if (point==2)  {set_led_on(0,0,0,1,0,0,1,0);set_led_off(0,0,0,1,0,0,1,0);}
                 _0x205:
000d6c 91a0 01fa 	LDS  R26,_point
000d6e 30a2      	CPI  R26,LOW(0x2)
000d6f f451      	BRNE _0x207
000d70 940e 19bf 	CALL SUBOPT_0x38
000d72 940e 1a63 	CALL SUBOPT_0x52
000d74 940e 1a5e 	CALL SUBOPT_0x51
000d76 940e 1a63 	CALL SUBOPT_0x52
000d78 e0e1      	LDI  R30,LOW(1)
000d79 c020      	RJMP _0x3C8
                 ; 0000 03DA                 else if (point==3)  {set_led_on(0,0,0,1,0,1,0,0);set_led_off(0,0,0,1,0,1,0,0);}
                 _0x207:
000d7a 91a0 01fa 	LDS  R26,_point
000d7c 30a3      	CPI  R26,LOW(0x3)
000d7d f461      	BRNE _0x209
000d7e 940e 19bf 	CALL SUBOPT_0x38
000d80 940e 1be1 	CALL SUBOPT_0x80
000d82 940e 1a63 	CALL SUBOPT_0x52
000d84 940e 1a21 	CALL SUBOPT_0x48
000d86 940e 1be1 	CALL SUBOPT_0x80
000d88 e0e1      	LDI  R30,LOW(1)
000d89 c00e      	RJMP _0x3C9
                 ; 0000 03DB                 else if (point==4)  {set_led_on(0,0,0,1,1,0,0,0);set_led_off(0,0,0,1,1,0,0,0);}
                 _0x209:
000d8a 91a0 01fa 	LDS  R26,_point
000d8c 30a4      	CPI  R26,LOW(0x4)
000d8d f479      	BRNE _0x20B
000d8e 940e 19bf 	CALL SUBOPT_0x38
000d90 940e 1be6 	CALL SUBOPT_0x81
000d92 940e 1a21 	CALL SUBOPT_0x48
000d94 e0e1      	LDI  R30,LOW(1)
000d95 93ea      	ST   -Y,R30
                 _0x3C7:
000d96 93ea      	ST   -Y,R30
000d97 e0e0      	LDI  R30,LOW(0)
                 _0x3C9:
000d98 93ea      	ST   -Y,R30
000d99 e0e0      	LDI  R30,LOW(0)
                 _0x3C8:
000d9a 93ea      	ST   -Y,R30
000d9b 940e 1a6b 	CALL SUBOPT_0x54
                 ; 0000 03DC                 }
                 _0x20B:
                 ; 0000 03DD         //-------------------------------------------------------------------//
                 ; 0000 03DE 
                 ; 0000 03DF         //-------------------------------------------------------------------//
                 ; 0000 03E0         //ÔÓÎ¸ÁÓ‚‡ÚÂÎ¸ÒÍÓÂ ÏÂÌ˛
                 ; 0000 03E1         //-------------------------------------------------------------------//
                 ; 0000 03E2         if (mode==1)
                 _0x1F5:
000d9d 91a0 01f9 	LDS  R26,_mode
000d9f 30a1      	CPI  R26,LOW(0x1)
000da0 f011      	BREQ PC+3
000da1 940c 0deb 	JMP _0x20C
                 ; 0000 03E3                 {
                 ; 0000 03E4                 hex2dec(count_register);
000da3 91e0 021f 	LDS  R30,_count_register
000da5 940e 1bea 	CALL SUBOPT_0x82
                 ; 0000 03E5                 ed=' ';
000da7 940e 1a2d 	CALL SUBOPT_0x4A
                 ; 0000 03E6                 switch (count_register)
                 ; 0000 03E7                         {
                 ; 0000 03E8                         case 2: tis='”';sot='_';des= 2 ;set_led_on(0,1,0,1,0,0,0,0);break;
000da9 f451      	BRNE _0x210
000daa ede3      	LDI  R30,LOW(211)
000dab 93e0 01ff 	STS  _tis,R30
000dad e5ef      	LDI  R30,LOW(95)
000dae 940e 19ca 	CALL SUBOPT_0x3A
000db0 940e 1a66 	CALL SUBOPT_0x53
000db2 e0e0      	LDI  R30,LOW(0)
000db3 c02a      	RJMP _0x3CA
                 ; 0000 03E9                         case 3: tis= 3 ;sot='_';des= 1 ;set_led_on(0,0,1,1,0,0,0,0);break;
                 _0x210:
000db4 30e3      	CPI  R30,LOW(0x3)
000db5 f411      	BRNE _0x211
000db6 e0e3      	LDI  R30,LOW(3)
000db7 c01d      	RJMP _0x3CB
                 ; 0000 03EA                         case 4: tis= 3 ;sot='_';des= 2 ;set_led_on(0,1,0,1,0,0,0,0);break;
                 _0x211:
000db8 30e4      	CPI  R30,LOW(0x4)
000db9 f451      	BRNE _0x212
000dba e0e3      	LDI  R30,LOW(3)
000dbb 93e0 01ff 	STS  _tis,R30
000dbd e5ef      	LDI  R30,LOW(95)
000dbe 940e 19ca 	CALL SUBOPT_0x3A
000dc0 940e 1a66 	CALL SUBOPT_0x53
000dc2 e0e0      	LDI  R30,LOW(0)
000dc3 c01a      	RJMP _0x3CA
                 ; 0000 03EB                         case 5: tis='p';sot='_';des='_';set_led_on(0,0,0,1,0,0,0,0);break;
                 _0x212:
000dc4 30e5      	CPI  R30,LOW(0x5)
000dc5 f431      	BRNE _0x213
000dc6 940e 1a3b 	CALL SUBOPT_0x4C
000dc8 940e 1bf3 	CALL SUBOPT_0x83
000dca e0e0      	LDI  R30,LOW(0)
000dcb c012      	RJMP _0x3CA
                 ; 0000 03EC                         case 6: tis='c';sot='_';des='_';set_led_on(0,0,0,1,0,0,0,0);break;
                 _0x213:
000dcc 30e6      	CPI  R30,LOW(0x6)
000dcd f431      	BRNE _0x215
000dce 940e 1a42 	CALL SUBOPT_0x4D
000dd0 940e 1bf3 	CALL SUBOPT_0x83
000dd2 e0e0      	LDI  R30,LOW(0)
000dd3 c00a      	RJMP _0x3CA
                 ; 0000 03ED                         default:tis='”';sot='_';des= 1 ;set_led_on(0,0,1,1,0,0,0,0);break;
                 _0x215:
000dd4 ede3      	LDI  R30,LOW(211)
                 _0x3CB:
000dd5 93e0 01ff 	STS  _tis,R30
000dd7 e5ef      	LDI  R30,LOW(95)
000dd8 93e0 01fe 	STS  _sot,R30
000dda e0e1      	LDI  R30,LOW(1)
000ddb 940e 1bf3 	CALL SUBOPT_0x83
000ddd e0e1      	LDI  R30,LOW(1)
                 _0x3CA:
000dde 93ea      	ST   -Y,R30
000ddf 940e 1bdb 	CALL SUBOPT_0x7E
000de1 e0e0      	LDI  R30,LOW(0)
000de2 93ea      	ST   -Y,R30
000de3 940e 0392 	CALL _set_led_on
                 ; 0000 03EE                         }
                 ; 0000 03EF                 set_led_off(0,0,0,1,0,0,0,0);
000de5 940e 19bf 	CALL SUBOPT_0x38
000de7 940e 1bdb 	CALL SUBOPT_0x7E
000de9 940e 1a6b 	CALL SUBOPT_0x54
                 ; 0000 03F0                 }
                 ; 0000 03F1         //-------------------------------------------------------------------//
                 ; 0000 03F2 
                 ; 0000 03F3         //-------------------------------------------------------------------//
                 ; 0000 03F4         //‰‡ÌÌ˚Â ÔÓÎ¸ÁÓ‚‡ÚÂÎ¸ÒÍÓ„Ó ÏÂÌ˛
                 ; 0000 03F5         //-------------------------------------------------------------------//
                 ; 0000 03F6         if (mode==2)
                 _0x20C:
000deb 91a0 01f9 	LDS  R26,_mode
000ded 30a2      	CPI  R26,LOW(0x2)
000dee f011      	BREQ PC+3
000def 940c 0e73 	JMP _0x216
                 ; 0000 03F7                 {
                 ; 0000 03F8                 if (count_register>6)count_register=1;
000df1 91a0 021f 	LDS  R26,_count_register
000df3 30a7      	CPI  R26,LOW(0x7)
000df4 f018      	BRLO _0x217
000df5 e0e1      	LDI  R30,LOW(1)
000df6 93e0 021f 	STS  _count_register,R30
                 ; 0000 03F9                 if (count_register<3)
                 _0x217:
000df8 91a0 021f 	LDS  R26,_count_register
000dfa 30a3      	CPI  R26,LOW(0x3)
000dfb f578      	BRSH _0x218
                 ; 0000 03FA                 {
                 ; 0000 03FB                          if ((data_register<0))
000dfc adad      	LDD  R26,Y+61
000dfd 23aa      	TST  R26
000dfe f4aa      	BRPL _0x219
                 ; 0000 03FC                                 {
                 ; 0000 03FD                                 if (data_register>=-1000)
000dff 940e 19e4 	CALL SUBOPT_0x3F
000e01 940e 19e9 	CALL SUBOPT_0x40
000e03 f018      	BRLO _0x21A
                 ; 0000 03FE                                    point = 1;
000e04 e0e1      	LDI  R30,LOW(1)
000e05 93e0 01fa 	STS  _point,R30
                 ; 0000 03FF                                  if (data_register>=-100)
                 _0x21A:
000e07 940e 19f0 	CALL SUBOPT_0x41
000e09 f018      	BRLO _0x21B
                 ; 0000 0400                                     point=2;
000e0a e0e2      	LDI  R30,LOW(2)
000e0b 93e0 01fa 	STS  _point,R30
                 ; 0000 0401                                 if (data_register>=-10)
                 _0x21B:
000e0d 940e 19f8 	CALL SUBOPT_0x42
000e0f f018      	BRLO _0x21C
                 ; 0000 0402                                     point=3;
000e10 e0e3      	LDI  R30,LOW(3)
000e11 93e0 01fa 	STS  _point,R30
                 ; 0000 0403                                 }
                 _0x21C:
                 ; 0000 0404                         else
000e13 c016      	RJMP _0x21D
                 _0x219:
                 ; 0000 0405                                 {
                 ; 0000 0406                                 if (data_register<10)
000e14 940e 1a00 	CALL SUBOPT_0x43
000e16 f418      	BRSH _0x21E
                 ; 0000 0407                                     point=work_point;
000e17 91e0 01fb 	LDS  R30,_work_point
000e19 c00e      	RJMP _0x3CC
                 ; 0000 0408                                 else if (data_register<100)
                 _0x21E:
000e1a 940e 1a08 	CALL SUBOPT_0x44
000e1c f410      	BRSH _0x220
                 ; 0000 0409                                     point=3;
000e1d e0e3      	LDI  R30,LOW(3)
000e1e c009      	RJMP _0x3CC
                 ; 0000 040A                                 else if (data_register<1000)
                 _0x220:
000e1f 940e 1a10 	CALL SUBOPT_0x45
000e21 f410      	BRSH _0x222
                 ; 0000 040B                                     point=2;
000e22 e0e2      	LDI  R30,LOW(2)
000e23 c004      	RJMP _0x3CC
                 ; 0000 040C                                 else if (data_register>=1000)
                 _0x222:
000e24 940e 1a10 	CALL SUBOPT_0x45
000e26 f018      	BRLO _0x224
                 ; 0000 040D                                     point=1;
000e27 e0e1      	LDI  R30,LOW(1)
                 _0x3CC:
000e28 93e0 01fa 	STS  _point,R30
                 ; 0000 040E                                 }
                 _0x224:
                 _0x21D:
                 ; 0000 040F                 }
                 ; 0000 0410                 else point=1;
000e2a c003      	RJMP _0x225
                 _0x218:
000e2b e0e1      	LDI  R30,LOW(1)
000e2c 93e0 01fa 	STS  _point,R30
                 ; 0000 0411                 hex2dec(data_register);
                 _0x225:
000e2e 940e 1a56 	CALL SUBOPT_0x50
                 ; 0000 0412                 if (point==1)       {set_led_on(0,0,0,0,0,0,0,0);set_led_off(0,0,0,0,0,0,0,0);}
000e30 91a0 01fa 	LDS  R26,_point
000e32 30a1      	CPI  R26,LOW(0x1)
000e33 f459      	BRNE _0x226
000e34 940e 19bf 	CALL SUBOPT_0x38
000e36 940e 19bf 	CALL SUBOPT_0x38
000e38 940e 1a1d 	CALL SUBOPT_0x47
000e3a 940e 1a21 	CALL SUBOPT_0x48
000e3c e0e0      	LDI  R30,LOW(0)
000e3d 93ea      	ST   -Y,R30
000e3e c02d      	RJMP _0x3CD
                 ; 0000 0413                 else if (point==2)  {set_led_on(0,0,0,0,0,0,1,0);set_led_off(0,0,0,0,0,0,1,0);}
                 _0x226:
000e3f 91a0 01fa 	LDS  R26,_point
000e41 30a2      	CPI  R26,LOW(0x2)
000e42 f451      	BRNE _0x228
000e43 940e 19bf 	CALL SUBOPT_0x38
000e45 940e 19bf 	CALL SUBOPT_0x38
000e47 940e 1a5e 	CALL SUBOPT_0x51
000e49 940e 19bf 	CALL SUBOPT_0x38
000e4b e0e1      	LDI  R30,LOW(1)
000e4c c023      	RJMP _0x3CE
                 ; 0000 0414                 else if (point==3)  {set_led_on(0,0,0,0,0,1,0,0);set_led_off(0,0,0,0,0,1,0,0);}
                 _0x228:
000e4d 91a0 01fa 	LDS  R26,_point
000e4f 30a3      	CPI  R26,LOW(0x3)
000e50 f461      	BRNE _0x22A
000e51 940e 19bf 	CALL SUBOPT_0x38
000e53 940e 1a1d 	CALL SUBOPT_0x47
000e55 940e 1a63 	CALL SUBOPT_0x52
000e57 940e 1a21 	CALL SUBOPT_0x48
000e59 940e 1a1d 	CALL SUBOPT_0x47
000e5b e0e1      	LDI  R30,LOW(1)
000e5c c011      	RJMP _0x3CF
                 ; 0000 0415                 else if (point==4)  {set_led_on(0,0,0,0,1,0,0,0);set_led_off(0,0,0,0,1,0,0,0);}
                 _0x22A:
000e5d 91a0 01fa 	LDS  R26,_point
000e5f 30a4      	CPI  R26,LOW(0x4)
000e60 f491      	BRNE _0x22C
000e61 940e 19bf 	CALL SUBOPT_0x38
000e63 940e 1a66 	CALL SUBOPT_0x53
000e65 940e 19bf 	CALL SUBOPT_0x38
000e67 940e 1a21 	CALL SUBOPT_0x48
000e69 e0e0      	LDI  R30,LOW(0)
000e6a 93ea      	ST   -Y,R30
000e6b e0e1      	LDI  R30,LOW(1)
                 _0x3CD:
000e6c 93ea      	ST   -Y,R30
000e6d e0e0      	LDI  R30,LOW(0)
                 _0x3CF:
000e6e 93ea      	ST   -Y,R30
000e6f e0e0      	LDI  R30,LOW(0)
                 _0x3CE:
000e70 93ea      	ST   -Y,R30
000e71 940e 1a6b 	CALL SUBOPT_0x54
                 ; 0000 0416                 }
                 _0x22C:
                 ; 0000 0417         //-------------------------------------------------------------------//
                 ; 0000 0418 
                 ; 0000 0419         //-------------------------------------------------------------------//
                 ; 0000 041A         //ËÌÊÂÌÂÌÓÂ ÏÂÌ˛
                 ; 0000 041B         //-------------------------------------------------------------------//
                 ; 0000 041C         if (mode==10)
                 _0x216:
000e73 91a0 01f9 	LDS  R26,_mode
000e75 30aa      	CPI  R26,LOW(0xA)
000e76 f531      	BRNE _0x22D
                 ; 0000 041D                 {
                 ; 0000 041E                 if (count_register<7) count_register=7;
000e77 91a0 021f 	LDS  R26,_count_register
000e79 30a7      	CPI  R26,LOW(0x7)
000e7a f418      	BRSH _0x22E
000e7b e0e7      	LDI  R30,LOW(7)
000e7c 93e0 021f 	STS  _count_register,R30
                 ; 0000 041F                 hex2dec(count_register-6);point=1;
                 _0x22E:
000e7e 91e0 021f 	LDS  R30,_count_register
000e80 50e6      	SUBI R30,LOW(6)
000e81 940e 1bea 	CALL SUBOPT_0x82
000e83 e0e1      	LDI  R30,LOW(1)
000e84 93e0 01fa 	STS  _point,R30
                 ; 0000 0420                 if (des==' ') des='_';
000e86 91a0 01fd 	LDS  R26,_des
000e88 32a0      	CPI  R26,LOW(0x20)
000e89 f419      	BRNE _0x22F
000e8a e5ef      	LDI  R30,LOW(95)
000e8b 93e0 01fd 	STS  _des,R30
                 ; 0000 0421                 tis='a';sot='_';
                 _0x22F:
000e8d e6e1      	LDI  R30,LOW(97)
000e8e 93e0 01ff 	STS  _tis,R30
000e90 e5ef      	LDI  R30,LOW(95)
000e91 93e0 01fe 	STS  _sot,R30
                 ; 0000 0422                 set_led_on(0,0,0,1,0,0,0,0);
000e93 940e 19bf 	CALL SUBOPT_0x38
000e95 940e 1bdb 	CALL SUBOPT_0x7E
000e97 940e 1bde 	CALL SUBOPT_0x7F
                 ; 0000 0423                 set_led_off(0,0,0,1,0,0,0,0);
000e99 940e 1bdb 	CALL SUBOPT_0x7E
000e9b 940e 1a6b 	CALL SUBOPT_0x54
                 ; 0000 0424                 }
                 ; 0000 0425         //-------------------------------------------------------------------//
                 ; 0000 0426 
                 ; 0000 0427         //-------------------------------------------------------------------//
                 ; 0000 0428         //Í‡ÎË·Ó‚Í‡
                 ; 0000 0429         //-------------------------------------------------------------------//
                 ; 0000 042A         if ((mode==11)&&(count_register==A_16))
                 _0x22D:
000e9d 91a0 01f9 	LDS  R26,_mode
000e9f 30ab      	CPI  R26,LOW(0xB)
000ea0 f421      	BRNE _0x231
000ea1 91a0 021f 	LDS  R26,_count_register
000ea3 31a6      	CPI  R26,LOW(0x16)
000ea4 f009      	BREQ _0x232
                 _0x231:
000ea5 c05d      	RJMP _0x230
                 _0x232:
                 ; 0000 042B                 {
                 ; 0000 042C                 point=work_point;
000ea6 91e0 01fb 	LDS  R30,_work_point
000ea8 93e0 01fa 	STS  _point,R30
                 ; 0000 042D                 k_k=data_register;
000eaa 940e 1bf6 	CALL SUBOPT_0x84
                +
000eac abea     +STD Y + 50 , R30
000ead abfb     +STD Y + 50 + 1 , R31
000eae ab6c     +STD Y + 50 + 2 , R22
000eaf ab7d     +STD Y + 50 + 3 , R23
                 	__PUTD1S 50
                 ; 0000 042E                 if (reg[0][A_05]==0)adc_value3=adc_value1;
000eb0 940e 1bb4 	CALL SUBOPT_0x7A
000eb2 940e 1f5b 	CALL __CPD10
000eb4 f419      	BRNE _0x233
000eb5 940e 1bb9 	CALL SUBOPT_0x7B
000eb7 c002      	RJMP _0x3D0
                 ; 0000 042F                 else adc_value3=adc_value2;
                 _0x233:
000eb8 940e 1bc2 	CALL SUBOPT_0x7C
                 _0x3D0:
000eba 93e0 0236 	STS  _adc_value3,R30
000ebc 93f0 0237 	STS  _adc_value3+1,R31
000ebe 9360 0238 	STS  _adc_value3+2,R22
000ec0 9370 0239 	STS  _adc_value3+3,R23
                 ; 0000 0430                 hex2dec(adc_value3);
000ec2 940e 1bcb 	CALL SUBOPT_0x7D
                 ; 0000 0431                 if (point==1)       {set_led_on(0,0,0,1,0,0,0,0);set_led_off(0,0,0,1,0,0,0,0);}
000ec4 f451      	BRNE _0x235
000ec5 940e 19bf 	CALL SUBOPT_0x38
000ec7 940e 1bdb 	CALL SUBOPT_0x7E
000ec9 940e 1bde 	CALL SUBOPT_0x7F
000ecb e0e1      	LDI  R30,LOW(1)
000ecc 93ea      	ST   -Y,R30
000ecd e0e0      	LDI  R30,LOW(0)
000ece c02a      	RJMP _0x3D1
                 ; 0000 0432                 else if (point==2)  {set_led_on(0,0,0,1,0,0,1,0);set_led_off(0,0,0,1,0,0,1,0);}
                 _0x235:
000ecf 91a0 01fa 	LDS  R26,_point
000ed1 30a2      	CPI  R26,LOW(0x2)
000ed2 f451      	BRNE _0x237
000ed3 940e 19bf 	CALL SUBOPT_0x38
000ed5 940e 1a63 	CALL SUBOPT_0x52
000ed7 940e 1a5e 	CALL SUBOPT_0x51
000ed9 940e 1a63 	CALL SUBOPT_0x52
000edb e0e1      	LDI  R30,LOW(1)
000edc c020      	RJMP _0x3D2
                 ; 0000 0433                 else if (point==3)  {set_led_on(0,0,0,1,0,1,0,0);set_led_off(0,0,0,1,0,1,0,0);}
                 _0x237:
000edd 91a0 01fa 	LDS  R26,_point
000edf 30a3      	CPI  R26,LOW(0x3)
000ee0 f461      	BRNE _0x239
000ee1 940e 19bf 	CALL SUBOPT_0x38
000ee3 940e 1be1 	CALL SUBOPT_0x80
000ee5 940e 1a63 	CALL SUBOPT_0x52
000ee7 940e 1a21 	CALL SUBOPT_0x48
000ee9 940e 1be1 	CALL SUBOPT_0x80
000eeb e0e1      	LDI  R30,LOW(1)
000eec c00e      	RJMP _0x3D3
                 ; 0000 0434                 else if (point==4)  {set_led_on(0,0,0,1,1,0,0,0);set_led_off(0,0,0,1,1,0,0,0);}
                 _0x239:
000eed 91a0 01fa 	LDS  R26,_point
000eef 30a4      	CPI  R26,LOW(0x4)
000ef0 f479      	BRNE _0x23B
000ef1 940e 19bf 	CALL SUBOPT_0x38
000ef3 940e 1be6 	CALL SUBOPT_0x81
000ef5 940e 1a21 	CALL SUBOPT_0x48
000ef7 e0e1      	LDI  R30,LOW(1)
000ef8 93ea      	ST   -Y,R30
                 _0x3D1:
000ef9 93ea      	ST   -Y,R30
000efa e0e0      	LDI  R30,LOW(0)
                 _0x3D3:
000efb 93ea      	ST   -Y,R30
000efc e0e0      	LDI  R30,LOW(0)
                 _0x3D2:
000efd 93ea      	ST   -Y,R30
000efe 940e 1a6b 	CALL SUBOPT_0x54
                 ; 0000 0435                 point=4;
                 _0x23B:
000f00 e0e4      	LDI  R30,LOW(4)
000f01 93e0 01fa 	STS  _point,R30
                 ; 0000 0436                 }
                 ; 0000 0437         //-------------------------------------------------------------------//
                 ; 0000 0438 
                 ; 0000 0439         //-------------------------------------------------------------------//
                 ; 0000 043A         //‰‡ÌÌ˚Â ËÌÊÂÌÂÌÓ„Ó ÏÂÌ˛
                 ; 0000 043B         //-------------------------------------------------------------------//
                 ; 0000 043C         if ((mode==11)&&(count_register!=A_16))
                 _0x230:
000f03 91a0 01f9 	LDS  R26,_mode
000f05 30ab      	CPI  R26,LOW(0xB)
000f06 f421      	BRNE _0x23D
000f07 91a0 021f 	LDS  R26,_count_register
000f09 31a6      	CPI  R26,LOW(0x16)
000f0a f409      	BRNE _0x23E
                 _0x23D:
000f0b c134      	RJMP _0x23C
                 _0x23E:
                 ; 0000 043D                 {
                 ; 0000 043E                 if (((count_register==A_06)|(count_register==A_07))|(count_register==A_18))//|(count_register==A_19))
000f0c 91a0 021f 	LDS  R26,_count_register
000f0e e0ec      	LDI  R30,LOW(12)
000f0f 940e 1bfb 	CALL SUBOPT_0x85
000f11 e0ed      	LDI  R30,LOW(13)
000f12 940e 1c01 	CALL SUBOPT_0x86
000f14 e1e8      	LDI  R30,LOW(24)
000f15 940e 1eaf 	CALL __EQB12
000f17 29e0      	OR   R30,R0
000f18 f171      	BREQ _0x23F
                 ; 0000 043F                         {//point=work_point;
                 ; 0000 0440                         if ((data_register<0))
000f19 adad      	LDD  R26,Y+61
000f1a 23aa      	TST  R26
000f1b f4aa      	BRPL _0x240
                 ; 0000 0441                                 {
                 ; 0000 0442                                 if (data_register>=-1000)
000f1c 940e 19e4 	CALL SUBOPT_0x3F
000f1e 940e 19e9 	CALL SUBOPT_0x40
000f20 f018      	BRLO _0x241
                 ; 0000 0443                                    point = 1;
000f21 e0e1      	LDI  R30,LOW(1)
000f22 93e0 01fa 	STS  _point,R30
                 ; 0000 0444                                  if (data_register>=-100)
                 _0x241:
000f24 940e 19f0 	CALL SUBOPT_0x41
000f26 f018      	BRLO _0x242
                 ; 0000 0445                                     point=2;
000f27 e0e2      	LDI  R30,LOW(2)
000f28 93e0 01fa 	STS  _point,R30
                 ; 0000 0446                                 if (data_register>=-10)
                 _0x242:
000f2a 940e 19f8 	CALL SUBOPT_0x42
000f2c f018      	BRLO _0x243
                 ; 0000 0447                                     point=3;
000f2d e0e3      	LDI  R30,LOW(3)
000f2e 93e0 01fa 	STS  _point,R30
                 ; 0000 0448                                 }
                 _0x243:
                 ; 0000 0449                         else
000f30 c015      	RJMP _0x244
                 _0x240:
                 ; 0000 044A                                 {
                 ; 0000 044B                                 if (data_register<10)
000f31 940e 1a00 	CALL SUBOPT_0x43
000f33 f410      	BRSH _0x245
                 ; 0000 044C                                     point=4;
000f34 e0e4      	LDI  R30,LOW(4)
000f35 c00e      	RJMP _0x3D4
                 ; 0000 044D                                 else if (data_register<100)
                 _0x245:
000f36 940e 1a08 	CALL SUBOPT_0x44
000f38 f410      	BRSH _0x247
                 ; 0000 044E                                     point=3;
000f39 e0e3      	LDI  R30,LOW(3)
000f3a c009      	RJMP _0x3D4
                 ; 0000 044F                                 else if (data_register<1000)
                 _0x247:
000f3b 940e 1a10 	CALL SUBOPT_0x45
000f3d f410      	BRSH _0x249
                 ; 0000 0450                                     point=2;
000f3e e0e2      	LDI  R30,LOW(2)
000f3f c004      	RJMP _0x3D4
                 ; 0000 0451                                 else if (data_register>=1000)
                 _0x249:
000f40 940e 1a10 	CALL SUBOPT_0x45
000f42 f018      	BRLO _0x24B
                 ; 0000 0452                                     point=1;
000f43 e0e1      	LDI  R30,LOW(1)
                 _0x3D4:
000f44 93e0 01fa 	STS  _point,R30
                 ; 0000 0453                                 }
                 _0x24B:
                 _0x244:
                 ; 0000 0454                         }
                 ; 0000 0455                 else if((count_register==A_08)|(count_register==A_09))
000f46 c013      	RJMP _0x24C
                 _0x23F:
000f47 91a0 021f 	LDS  R26,_count_register
000f49 e0ee      	LDI  R30,LOW(14)
000f4a 940e 1bfb 	CALL SUBOPT_0x85
000f4c e0ef      	LDI  R30,LOW(15)
000f4d 940e 1eaf 	CALL __EQB12
000f4f 29e0      	OR   R30,R0
000f50 f431      	BRNE _0x3D5
                 ; 0000 0456                 {
                 ; 0000 0457                             point = 1;
                 ; 0000 0458                 }
                 ; 0000 0459                 else if (count_register==A_10)point=3;
000f51 91a0 021f 	LDS  R26,_count_register
000f53 31a0      	CPI  R26,LOW(0x10)
000f54 f411      	BRNE _0x24F
000f55 e0e3      	LDI  R30,LOW(3)
000f56 c001      	RJMP _0x3D6
                 ; 0000 045A                 else point=1;
                 _0x24F:
                 _0x3D5:
000f57 e0e1      	LDI  R30,LOW(1)
                 _0x3D6:
000f58 93e0 01fa 	STS  _point,R30
                 ; 0000 045B                 hex2dec(data_register);
                 _0x24C:
000f5a 940e 1a56 	CALL SUBOPT_0x50
                 ; 0000 045C               // if (count_register==A_19){tis=1,sot=1;des=0;ed=9;point=3;}//‚ÔËÒ‡Ú¸ ‰‡ÚÛ Ë ‚ÂÏˇ
                 ; 0000 045D                 if (count_register==A_16)
000f5c 91a0 021f 	LDS  R26,_count_register
000f5e 31a6      	CPI  R26,LOW(0x16)
000f5f f011      	BREQ PC+3
000f60 940c 0fb2 	JMP _0x251
                 ; 0000 045E                         {
                 ; 0000 045F                         if      (data_register==0){tis=4,sot='-';des=2;ed=0;point=1;}
000f62 940e 1bf6 	CALL SUBOPT_0x84
000f64 940e 1f5b 	CALL __CPD10
000f66 f449      	BRNE _0x252
000f67 e0e4      	LDI  R30,LOW(4)
000f68 93e0 01ff 	STS  _tis,R30
000f6a e2ed      	LDI  R30,LOW(45)
000f6b 940e 19ca 	CALL SUBOPT_0x3A
000f6d 940e 1c07 	CALL SUBOPT_0x87
000f6f c040      	RJMP _0x3D7
                 ; 0000 0460                         else if (data_register==1){tis=0,sot='-';des=0;ed=5;point=1;}
                 _0x252:
000f70 940e 19e4 	CALL SUBOPT_0x3F
                +
000f72 30a0     +CPI R26 , LOW ( 0x3F800000 )
000f73 e0e0     +LDI R30 , HIGH ( 0x3F800000 )
000f74 07be     +CPC R27 , R30
000f75 e8e0     +LDI R30 , BYTE3 ( 0x3F800000 )
000f76 078e     +CPC R24 , R30
000f77 e3ef     +LDI R30 , BYTE4 ( 0x3F800000 )
000f78 079e     +CPC R25 , R30
                 	__CPD2N 0x3F800000
000f79 f449      	BRNE _0x254
000f7a 940e 1c0c 	CALL SUBOPT_0x88
000f7c 940e 1981 	CALL SUBOPT_0x30
000f7e e0e5      	LDI  R30,LOW(5)
000f7f 93e0 01fc 	STS  _ed,R30
000f81 e0e1      	LDI  R30,LOW(1)
000f82 c02d      	RJMP _0x3D7
                 ; 0000 0461                         else if (data_register==2){tis=0,sot='-';des=2;ed=0;point=1;}
                 _0x254:
000f83 940e 19e4 	CALL SUBOPT_0x3F
                +
000f85 30a0     +CPI R26 , LOW ( 0x40000000 )
000f86 e0e0     +LDI R30 , HIGH ( 0x40000000 )
000f87 07be     +CPC R27 , R30
000f88 e0e0     +LDI R30 , BYTE3 ( 0x40000000 )
000f89 078e     +CPC R24 , R30
000f8a e4e0     +LDI R30 , BYTE4 ( 0x40000000 )
000f8b 079e     +CPC R25 , R30
                 	__CPD2N 0x40000000
000f8c f439      	BRNE _0x256
000f8d 940e 1c0c 	CALL SUBOPT_0x88
000f8f 940e 19ca 	CALL SUBOPT_0x3A
000f91 940e 1c07 	CALL SUBOPT_0x87
000f93 c01c      	RJMP _0x3D7
                 ; 0000 0462                         else if (data_register==3){tis=0,sot='-';des=1;ed=0;point=1;}
                 _0x256:
000f94 940e 19e4 	CALL SUBOPT_0x3F
                +
000f96 30a0     +CPI R26 , LOW ( 0x40400000 )
000f97 e0e0     +LDI R30 , HIGH ( 0x40400000 )
000f98 07be     +CPC R27 , R30
000f99 e4e0     +LDI R30 , BYTE3 ( 0x40400000 )
000f9a 078e     +CPC R24 , R30
000f9b e4e0     +LDI R30 , BYTE4 ( 0x40400000 )
000f9c 079e     +CPC R25 , R30
                 	__CPD2N 0x40400000
000f9d f451      	BRNE _0x258
000f9e 940e 1c0c 	CALL SUBOPT_0x88
000fa0 93e0 01fe 	STS  _sot,R30
000fa2 e0e1      	LDI  R30,LOW(1)
000fa3 93e0 01fd 	STS  _des,R30
000fa5 940e 1c07 	CALL SUBOPT_0x87
000fa7 c008      	RJMP _0x3D7
                 ; 0000 0463                         else                      {tis=0,sot='-';des=0;ed=5;point=3;}
                 _0x258:
000fa8 940e 1c0c 	CALL SUBOPT_0x88
000faa 940e 1981 	CALL SUBOPT_0x30
000fac e0e5      	LDI  R30,LOW(5)
000fad 93e0 01fc 	STS  _ed,R30
000faf e0e3      	LDI  R30,LOW(3)
                 _0x3D7:
000fb0 93e0 01fa 	STS  _point,R30
                 ; 0000 0464                         }
                 ; 0000 0465                 if(count_register==A_19)
                 _0x251:
000fb2 91a0 021f 	LDS  R26,_count_register
000fb4 31a9      	CPI  R26,LOW(0x19)
000fb5 f4f9      	BRNE _0x25A
                 ; 0000 0466                 {
                 ; 0000 0467                      tis  = (reg[0][25]*100)/1000;
000fb6 940e 1c11 	CALL SUBOPT_0x89
000fb8 940e 197a 	CALL SUBOPT_0x2F
000fba 940e 1999 	CALL SUBOPT_0x34
                 ; 0000 0468                      sot  = ((int)(reg[0][25]*100)%1000)/100;
000fbc 940e 1c11 	CALL SUBOPT_0x89
000fbe 940e 19a1 	CALL SUBOPT_0x35
000fc0 940e 19a7 	CALL SUBOPT_0x36
                 ; 0000 0469                      des  = ((int)(reg[0][25]*100)%100)/10;
000fc2 940e 1c11 	CALL SUBOPT_0x89
000fc4 940e 19a1 	CALL SUBOPT_0x35
000fc6 940e 19b3 	CALL SUBOPT_0x37
                 ; 0000 046A                      ed  =(int) (reg[0][25]*100)%10;
000fc8 940e 1c11 	CALL SUBOPT_0x89
000fca 940e 19a1 	CALL SUBOPT_0x35
000fcc e0ea      	LDI  R30,LOW(10)
000fcd e0f0      	LDI  R31,HIGH(10)
000fce 940e 1ed8 	CALL __MODW21
000fd0 93e0 01fc 	STS  _ed,R30
                 ; 0000 046B                      point = 3;
000fd2 e0e3      	LDI  R30,LOW(3)
000fd3 93e0 01fa 	STS  _point,R30
                 ; 0000 046C                 }
                 ; 0000 046D //                if (count_register==A_18)
                 ; 0000 046E //                {
                 ; 0000 046F //                        tis=1;sot=1;des=0;ed=0;point=3;
                 ; 0000 0470 //                        //set_led_on(0,0,0,0,1,1,0,0);set_led_off(0,0,0,0,1,1,0,0);
                 ; 0000 0471 //                }
                 ; 0000 0472                 if (point==1)
                 _0x25A:
000fd5 91a0 01fa 	LDS  R26,_point
000fd7 30a1      	CPI  R26,LOW(0x1)
000fd8 f459      	BRNE _0x25B
                 ; 0000 0473                 {
                 ; 0000 0474                     set_led_on(0,0,0,0,0,0,0,0);
000fd9 940e 19bf 	CALL SUBOPT_0x38
000fdb 940e 19bf 	CALL SUBOPT_0x38
000fdd 940e 1a1d 	CALL SUBOPT_0x47
000fdf 940e 1a21 	CALL SUBOPT_0x48
                 ; 0000 0475                     set_led_off(0,0,0,0,0,0,0,0);
000fe1 e0e0      	LDI  R30,LOW(0)
000fe2 93ea      	ST   -Y,R30
000fe3 c02d      	RJMP _0x3D8
                 ; 0000 0476                 }
                 ; 0000 0477                 else if (point==2)
                 _0x25B:
000fe4 91a0 01fa 	LDS  R26,_point
000fe6 30a2      	CPI  R26,LOW(0x2)
000fe7 f451      	BRNE _0x25D
                 ; 0000 0478                 {
                 ; 0000 0479                     set_led_on(0,0,0,0,0,0,1,0);
000fe8 940e 19bf 	CALL SUBOPT_0x38
000fea 940e 19bf 	CALL SUBOPT_0x38
000fec 940e 1a5e 	CALL SUBOPT_0x51
                 ; 0000 047A                     set_led_off(0,0,0,0,0,0,1,0);
000fee 940e 19bf 	CALL SUBOPT_0x38
000ff0 e0e1      	LDI  R30,LOW(1)
000ff1 c023      	RJMP _0x3D9
                 ; 0000 047B                 }
                 ; 0000 047C                 else if (point==3)
                 _0x25D:
000ff2 91a0 01fa 	LDS  R26,_point
000ff4 30a3      	CPI  R26,LOW(0x3)
000ff5 f461      	BRNE _0x25F
                 ; 0000 047D                 {
                 ; 0000 047E                     set_led_on(0,0,0,0,0,1,0,0);
000ff6 940e 19bf 	CALL SUBOPT_0x38
000ff8 940e 1a1d 	CALL SUBOPT_0x47
000ffa 940e 1a63 	CALL SUBOPT_0x52
000ffc 940e 1a21 	CALL SUBOPT_0x48
                 ; 0000 047F                     set_led_off(0,0,0,0,0,1,0,0);
000ffe 940e 1a1d 	CALL SUBOPT_0x47
001000 e0e1      	LDI  R30,LOW(1)
001001 c011      	RJMP _0x3DA
                 ; 0000 0480                 }
                 ; 0000 0481                 else if (point==4)
                 _0x25F:
001002 91a0 01fa 	LDS  R26,_point
001004 30a4      	CPI  R26,LOW(0x4)
001005 f491      	BRNE _0x261
                 ; 0000 0482                 {
                 ; 0000 0483                     set_led_on(0,0,0,0,1,0,0,0);
001006 940e 19bf 	CALL SUBOPT_0x38
001008 940e 1a66 	CALL SUBOPT_0x53
00100a 940e 19bf 	CALL SUBOPT_0x38
00100c 940e 1a21 	CALL SUBOPT_0x48
                 ; 0000 0484                     set_led_off(0,0,0,0,1,0,0,0);
00100e e0e0      	LDI  R30,LOW(0)
00100f 93ea      	ST   -Y,R30
001010 e0e1      	LDI  R30,LOW(1)
                 _0x3D8:
001011 93ea      	ST   -Y,R30
001012 e0e0      	LDI  R30,LOW(0)
                 _0x3DA:
001013 93ea      	ST   -Y,R30
001014 e0e0      	LDI  R30,LOW(0)
                 _0x3D9:
001015 93ea      	ST   -Y,R30
001016 940e 1a6b 	CALL SUBOPT_0x54
                 ; 0000 0485                 }
                 ; 0000 0486 
                 ; 0000 0487 
                 ; 0000 0488                 if(count_register==CRCCONST) {tis = crc1digit; sot = crc2digit; des =crc3digit; ed = crc4digit; point = 0;}
                 _0x261:
001018 91a0 021f 	LDS  R26,_count_register
00101a 31ab      	CPI  R26,LOW(0x1B)
00101b f4d9      	BRNE _0x262
00101c eba5      	LDI  R26,LOW(_crc1digit)
00101d e0b1      	LDI  R27,HIGH(_crc1digit)
00101e 940e 1f2e 	CALL __EEPROMRDB
001020 93e0 01ff 	STS  _tis,R30
001022 eba6      	LDI  R26,LOW(_crc2digit)
001023 e0b1      	LDI  R27,HIGH(_crc2digit)
001024 940e 1f2e 	CALL __EEPROMRDB
001026 93e0 01fe 	STS  _sot,R30
001028 eba7      	LDI  R26,LOW(_crc3digit)
001029 e0b1      	LDI  R27,HIGH(_crc3digit)
00102a 940e 1f2e 	CALL __EEPROMRDB
00102c 93e0 01fd 	STS  _des,R30
00102e eba8      	LDI  R26,LOW(_crc4digit)
00102f e0b1      	LDI  R27,HIGH(_crc4digit)
001030 940e 1f2e 	CALL __EEPROMRDB
001032 93e0 01fc 	STS  _ed,R30
001034 e0e0      	LDI  R30,LOW(0)
001035 93e0 01fa 	STS  _point,R30
                 ; 0000 0489                 if(count_register==SOFTID) {tis = 'v'; sot = 1; des = 0; ed = 1; point = 0;}
                 _0x262:
001037 91a0 021f 	LDS  R26,_count_register
001039 31ac      	CPI  R26,LOW(0x1C)
00103a f429      	BRNE _0x263
00103b 940e 1939 	CALL SUBOPT_0x29
00103d e0e0      	LDI  R30,LOW(0)
00103e 93e0 01fa 	STS  _point,R30
                 ; 0000 048A                 }
                 _0x263:
                 ; 0000 048B         //-------------------------------------------------------------------//
                 ; 0000 048C 
                 ; 0000 048D         diap_val1 = reg[0][A_12];/*‚ ˝ÚÓÏ Û˜‡ÒÚÍÂ ÍÓ‰‡ ÛÒÚ‡Ì‡‚ÎË‚‡ÂÏ ÒÓÓÚ‚ÂÚÒÚ‚Û˛˘ÂÂ ÁÌ‡˜ÂÌËÂ*/
                 _0x23C:
                +
001040 e4a8     +LDI R26 , LOW ( _reg + ( 72 ) )
001041 e0b0     +LDI R27 , HIGH ( _reg + ( 72 ) )
                 	__POINTW2MN _reg,72
001042 940e 1f26 	CALL __EEPROMRDD
001044 940e 1d13 	CALL __CFD1U
001046 2f5e      	MOV  R21,R30
                 ; 0000 048E         if(diap_val1!=diap_val2)
001047 1745      	CP   R20,R21
001048 f1b9      	BREQ _0x264
                 ; 0000 048F         {
                 ; 0000 0490             diap_val2=diap_val1;
001049 2f45      	MOV  R20,R21
                 ; 0000 0491             switch (diap_val1)
00104a 2fe5      	MOV  R30,R21
                 ; 0000 0492             {
                 ; 0000 0493                 case 0:reg[0][A_06]=4; reg[0][A_07]=20;point=3;break;
00104b 30e0      	CPI  R30,0
00104c f439      	BRNE _0x268
                +
00104d e3a0     +LDI R26 , LOW ( _reg + ( 48 ) )
00104e e0b0     +LDI R27 , HIGH ( _reg + ( 48 ) )
                 	__POINTW2MN _reg,48
00104f 940e 1aa7 	CALL SUBOPT_0x5C
001051 940e 1c1c 	CALL SUBOPT_0x8A
001053 c028      	RJMP _0x3DB
                 ; 0000 0494                 case 1:reg[0][A_06]=0; reg[0][A_07]=5;point=4;break;
                 _0x268:
001054 30e1      	CPI  R30,LOW(0x1)
001055 f0a9      	BREQ _0x3DC
                 ; 0000 0495                 case 2:reg[0][A_06]=0; reg[0][A_07]=20;point=3;break;
001056 30e2      	CPI  R30,LOW(0x2)
001057 f429      	BRNE _0x26A
001058 940e 1c25 	CALL SUBOPT_0x8B
00105a 940e 1c1c 	CALL SUBOPT_0x8A
00105c c01f      	RJMP _0x3DB
                 ; 0000 0496                 case 3:reg[0][A_06]=0; reg[0][A_07]=10;point=3;break;
                 _0x26A:
00105d 30e3      	CPI  R30,LOW(0x3)
00105e f461      	BRNE _0x26C
00105f 940e 1c25 	CALL SUBOPT_0x8B
001061 940e 1f3a 	CALL __EEPROMWRD
                +
001063 e3a4     +LDI R26 , LOW ( _reg + ( 52 ) )
001064 e0b0     +LDI R27 , HIGH ( _reg + ( 52 ) )
                 	__POINTW2MN _reg,52
001065 940e 1acc 	CALL SUBOPT_0x62
001067 940e 1f3a 	CALL __EEPROMWRD
001069 e0e3      	LDI  R30,LOW(3)
00106a c011      	RJMP _0x3DB
                 ; 0000 0497                 default:reg[0][A_06]=0; reg[0][A_07]=5;point=4;break;
                 _0x26C:
                 _0x3DC:
                +
00106b e3a0     +LDI R26 , LOW ( _reg + ( 48 ) )
00106c e0b0     +LDI R27 , HIGH ( _reg + ( 48 ) )
                 	__POINTW2MN _reg,48
                +
00106d e0e0     +LDI R30 , LOW ( 0x0 )
00106e e0f0     +LDI R31 , HIGH ( 0x0 )
00106f e060     +LDI R22 , BYTE3 ( 0x0 )
001070 e070     +LDI R23 , BYTE4 ( 0x0 )
                 	__GETD1N 0x0
001071 940e 1f3a 	CALL __EEPROMWRD
                +
001073 e3a4     +LDI R26 , LOW ( _reg + ( 52 ) )
001074 e0b0     +LDI R27 , HIGH ( _reg + ( 52 ) )
                 	__POINTW2MN _reg,52
                +
001075 e0e0     +LDI R30 , LOW ( 0x40A00000 )
001076 e0f0     +LDI R31 , HIGH ( 0x40A00000 )
001077 ea60     +LDI R22 , BYTE3 ( 0x40A00000 )
001078 e470     +LDI R23 , BYTE4 ( 0x40A00000 )
                 	__GETD1N 0x40A00000
001079 940e 1f3a 	CALL __EEPROMWRD
00107b e0e4      	LDI  R30,LOW(4)
                 _0x3DB:
00107c 93e0 01fa 	STS  _point,R30
                 ; 0000 0498             }
                 ; 0000 0499                 ee_point=point;work_point=point;
00107e 940e 1c2c 	CALL SUBOPT_0x8C
                 ; 0000 049A         }        //Á‰ÂÒ¸ ÛÒÚ‡Ì‡‚ÎË‚‡ÂÏ ÌÂÓ·ıÓ‰ËÏÓÂ ÍÓÎË˜ÂÒÚ‚Ó ˆËÙ ‚ Á‡‚ËÒËÏÓÒÚË ÓÚ ÂÊËÏ‡ ‡·ÓÚ˚ (‰Îˇ 0-10 - 3 ˆËÙ˚ ÔÓÒÎÂ Á‡ÔˇÚÓÈ, ‰Îˇ 0-20 - 2 ˆËÙ˚ ÔÓÒÎÂ Á‡ÔˇÚÓÈ)
                 ; 0000 049B 
                 ; 0000 049C 
                 ; 0000 049D         if (key_plus_press==1)
                 _0x264:
001080 fe34      	SBRS R3,4
001081 c0aa      	RJMP _0x26D
                 ; 0000 049E                 {
                 ; 0000 049F 
                 ; 0000 04A0                 start_time_mode=sys_time;
001082 940e 1baa 	CALL SUBOPT_0x79
                 ; 0000 04A1                 if (count_key==0)
001084 91e0 0201 	LDS  R30,_count_key
001086 30e0      	CPI  R30,0
001087 f4e1      	BRNE _0x26E
                 ; 0000 04A2                         {
                 ; 0000 04A3                         if (mode==10)if (++count_register>MAX_REGISTER)count_register=MAX_REGISTER;
001088 91a0 01f9 	LDS  R26,_mode
00108a 30aa      	CPI  R26,LOW(0xA)
00108b f451      	BRNE _0x26F
00108c 91a0 021f 	LDS  R26,_count_register
00108e 5faf      	SUBI R26,-LOW(1)
00108f 93a0 021f 	STS  _count_register,R26
001091 31ad      	CPI  R26,LOW(0x1D)
001092 f018      	BRLO _0x270
001093 e1ec      	LDI  R30,LOW(28)
001094 93e0 021f 	STS  _count_register,R30
                 ; 0000 04A4                         if (mode==1)if (++count_register>6)count_register=6;
                 _0x270:
                 _0x26F:
001096 91a0 01f9 	LDS  R26,_mode
001098 30a1      	CPI  R26,LOW(0x1)
001099 f451      	BRNE _0x271
00109a 91a0 021f 	LDS  R26,_count_register
00109c 5faf      	SUBI R26,-LOW(1)
00109d 93a0 021f 	STS  _count_register,R26
00109f 30a7      	CPI  R26,LOW(0x7)
0010a0 f018      	BRLO _0x272
0010a1 e0e6      	LDI  R30,LOW(6)
0010a2 93e0 021f 	STS  _count_register,R30
                 ; 0000 04A5                         }
                 _0x272:
                 _0x271:
                 ; 0000 04A6                 if ((count_key==0)||(count_key==21)||(count_key1==102))
                 _0x26E:
0010a4 91a0 0201 	LDS  R26,_count_key
0010a6 30a0      	CPI  R26,LOW(0x0)
0010a7 f039      	BREQ _0x274
0010a8 31a5      	CPI  R26,LOW(0x15)
0010a9 f029      	BREQ _0x274
0010aa 91a0 0202 	LDS  R26,_count_key1
0010ac 36a6      	CPI  R26,LOW(0x66)
0010ad f009      	BREQ _0x274
0010ae c07a      	RJMP _0x273
                 _0x274:
                 ; 0000 04A7                         {
                 ; 0000 04A8                         if      (point==1)
0010af 91a0 01fa 	LDS  R26,_point
0010b1 30a1      	CPI  R26,LOW(0x1)
0010b2 f479      	BRNE _0x276
                 ; 0000 04A9                                 {
                 ; 0000 04AA                                 data_register=data_register+1;
0010b3 940e 1c33 	CALL SUBOPT_0x8D
0010b5 940e 1c39 	CALL SUBOPT_0x8E
                 ; 0000 04AB                                 if ((data_register<0)&&(data_register>=-100))point=2;
0010b7 adad      	LDD  R26,Y+61
0010b8 23aa      	TST  R26
0010b9 f41a      	BRPL _0x278
0010ba 940e 19f0 	CALL SUBOPT_0x41
0010bc f408      	BRSH _0x279
                 _0x278:
0010bd c003      	RJMP _0x277
                 _0x279:
0010be e0e2      	LDI  R30,LOW(2)
0010bf 93e0 01fa 	STS  _point,R30
                 ; 0000 04AC                                 }
                 _0x277:
                 ; 0000 04AD                         else if (point==2)
0010c1 c04b      	RJMP _0x27A
                 _0x276:
0010c2 91a0 01fa 	LDS  R26,_point
0010c4 30a2      	CPI  R26,LOW(0x2)
0010c5 f4c1      	BRNE _0x27B
                 ; 0000 04AE                                 {
                 ; 0000 04AF                                 data_register=data_register+0.1;
0010c6 940e 1c3c 	CALL SUBOPT_0x8F
0010c8 940e 1c39 	CALL SUBOPT_0x8E
                 ; 0000 04B0                                 if ((data_register>0)&&(data_register>=1000))point=1;
0010ca 940e 1c42 	CALL SUBOPT_0x90
0010cc f41c      	BRGE _0x27D
0010cd 940e 1a10 	CALL SUBOPT_0x45
0010cf f408      	BRSH _0x27E
                 _0x27D:
0010d0 c002      	RJMP _0x27C
                 _0x27E:
0010d1 e0e1      	LDI  R30,LOW(1)
0010d2 c008      	RJMP _0x3DD
                 ; 0000 04B1                                 else if ((data_register<0)&&(data_register>=-10))point=3;
                 _0x27C:
0010d3 adad      	LDD  R26,Y+61
0010d4 23aa      	TST  R26
0010d5 f41a      	BRPL _0x281
0010d6 940e 19f8 	CALL SUBOPT_0x42
0010d8 f408      	BRSH _0x282
                 _0x281:
0010d9 c003      	RJMP _0x280
                 _0x282:
0010da e0e3      	LDI  R30,LOW(3)
                 _0x3DD:
0010db 93e0 01fa 	STS  _point,R30
                 ; 0000 04B2                                 }
                 _0x280:
                 ; 0000 04B3                         else if (point==3)
0010dd c02f      	RJMP _0x283
                 _0x27B:
0010de 91a0 01fa 	LDS  R26,_point
0010e0 30a3      	CPI  R26,LOW(0x3)
0010e1 f4b9      	BRNE _0x284
                 ; 0000 04B4                                 {
                 ; 0000 04B5                                 data_register=data_register+0.01;
0010e2 940e 1c46 	CALL SUBOPT_0x91
0010e4 940e 1c39 	CALL SUBOPT_0x8E
                 ; 0000 04B6                                 if ((data_register>0)&&(data_register>=100))point=2;
0010e6 940e 1c42 	CALL SUBOPT_0x90
0010e8 f41c      	BRGE _0x286
0010e9 940e 1a08 	CALL SUBOPT_0x44
0010eb f408      	BRSH _0x287
                 _0x286:
0010ec c001      	RJMP _0x285
                 _0x287:
0010ed c007      	RJMP _0x3DE
                 ; 0000 04B7                                 else if ((data_register<0)&&(data_register>=-10))point=2;
                 _0x285:
0010ee adad      	LDD  R26,Y+61
0010ef 23aa      	TST  R26
0010f0 f41a      	BRPL _0x28A
0010f1 940e 19f8 	CALL SUBOPT_0x42
0010f3 f408      	BRSH _0x28B
                 _0x28A:
0010f4 c003      	RJMP _0x289
                 _0x28B:
                 _0x3DE:
0010f5 e0e2      	LDI  R30,LOW(2)
0010f6 93e0 01fa 	STS  _point,R30
                 ; 0000 04B8                                 }
                 _0x289:
                 ; 0000 04B9                         else if (point==4)
0010f8 c014      	RJMP _0x28C
                 _0x284:
0010f9 91a0 01fa 	LDS  R26,_point
0010fb 30a4      	CPI  R26,LOW(0x4)
0010fc f481      	BRNE _0x28D
                 ; 0000 04BA                                 {
                 ; 0000 04BB                                 data_register=data_register+0.001;
0010fd 940e 1bf6 	CALL SUBOPT_0x84
0010ff 940e 18fb 	CALL SUBOPT_0x1F
001101 940e 1c39 	CALL SUBOPT_0x8E
                 ; 0000 04BC                                 if ((data_register>0)&&(data_register>=10))point=3;
001103 940e 1c42 	CALL SUBOPT_0x90
001105 f41c      	BRGE _0x28F
001106 940e 1a00 	CALL SUBOPT_0x43
001108 f408      	BRSH _0x290
                 _0x28F:
001109 c003      	RJMP _0x28E
                 _0x290:
00110a e0e3      	LDI  R30,LOW(3)
00110b 93e0 01fa 	STS  _point,R30
                 ; 0000 04BD //                                else if ((data_register<0)&&(data_register>=-1))point=3;
                 ; 0000 04BE                                 }
                 _0x28E:
                 ; 0000 04BF                         if (data_register>reg[2][count_register])data_register=reg[2][count_register];
                 _0x28D:
                 _0x28C:
                 _0x283:
                 _0x27A:
00110d 940e 1c4c 	CALL SUBOPT_0x92
00110f 940e 19e4 	CALL SUBOPT_0x3F
001111 940e 1e69 	CALL __CMPF12
001113 f009      	BREQ PC+2
001114 f410      	BRCC PC+3
001115 940c 111b 	JMP  _0x291
001117 940e 1c4c 	CALL SUBOPT_0x92
001119 940e 19df 	CALL SUBOPT_0x3E
                 ; 0000 04C0                         if (count_key==0)count_key=60;if (count_key==21)count_key=20;
                 _0x291:
00111b 91e0 0201 	LDS  R30,_count_key
00111d 30e0      	CPI  R30,0
00111e f419      	BRNE _0x292
00111f e3ec      	LDI  R30,LOW(60)
001120 93e0 0201 	STS  _count_key,R30
                 _0x292:
001122 91a0 0201 	LDS  R26,_count_key
001124 31a5      	CPI  R26,LOW(0x15)
001125 f419      	BRNE _0x293
001126 e1e4      	LDI  R30,LOW(20)
001127 93e0 0201 	STS  _count_key,R30
                 ; 0000 04C1                         }
                 _0x293:
                 ; 0000 04C2                 rekey();
                 _0x273:
001129 940e 0629 	CALL _rekey
                 ; 0000 04C3                 }
                 ; 0000 04C4         else if ((mode!=100)&&(key_enter_press==0)&&(key_mines_press==0)){count_key=0;count_key1=0;count_key2=0;}
00112b c00f      	RJMP _0x294
                 _0x26D:
00112c 91a0 01f9 	LDS  R26,_mode
00112e 36a4      	CPI  R26,LOW(0x64)
00112f f041      	BREQ _0x296
001130 e0a0      	LDI  R26,0
001131 fc36      	SBRC R3,6
001132 e0a1      	LDI  R26,1
001133 30a0      	CPI  R26,LOW(0x0)
001134 f419      	BRNE _0x296
001135 940e 185b 	CALL SUBOPT_0x8
001137 f009      	BREQ _0x297
                 _0x296:
001138 c002      	RJMP _0x295
                 _0x297:
001139 940e 1c54 	CALL SUBOPT_0x93
                 ; 0000 04C5 
                 ; 0000 04C6         if (key_mines_press==1)
                 _0x295:
                 _0x294:
00113b fe35      	SBRS R3,5
00113c c0a8      	RJMP _0x298
                 ; 0000 04C7                 {
                 ; 0000 04C8                 start_time_mode=sys_time;
00113d 940e 1baa 	CALL SUBOPT_0x79
                 ; 0000 04C9                 if (count_key==0)
00113f 91e0 0201 	LDS  R30,_count_key
001141 30e0      	CPI  R30,0
001142 f4e1      	BRNE _0x299
                 ; 0000 04CA                         {
                 ; 0000 04CB                         if (mode==10)if (--count_register<7)count_register=7;
001143 91a0 01f9 	LDS  R26,_mode
001145 30aa      	CPI  R26,LOW(0xA)
001146 f451      	BRNE _0x29A
001147 91a0 021f 	LDS  R26,_count_register
001149 50a1      	SUBI R26,LOW(1)
00114a 93a0 021f 	STS  _count_register,R26
00114c 30a7      	CPI  R26,LOW(0x7)
00114d f418      	BRSH _0x29B
00114e e0e7      	LDI  R30,LOW(7)
00114f 93e0 021f 	STS  _count_register,R30
                 ; 0000 04CC                         if (mode==1)if (--count_register<1)count_register=1;
                 _0x29B:
                 _0x29A:
001151 91a0 01f9 	LDS  R26,_mode
001153 30a1      	CPI  R26,LOW(0x1)
001154 f451      	BRNE _0x29C
001155 91a0 021f 	LDS  R26,_count_register
001157 50a1      	SUBI R26,LOW(1)
001158 93a0 021f 	STS  _count_register,R26
00115a 30a1      	CPI  R26,LOW(0x1)
00115b f418      	BRSH _0x29D
00115c e0e1      	LDI  R30,LOW(1)
00115d 93e0 021f 	STS  _count_register,R30
                 ; 0000 04CD                         }
                 _0x29D:
                 _0x29C:
                 ; 0000 04CE                 if ((count_key==0)||(count_key==21)||(count_key1==102))
                 _0x299:
00115f 91a0 0201 	LDS  R26,_count_key
001161 30a0      	CPI  R26,LOW(0x0)
001162 f039      	BREQ _0x29F
001163 31a5      	CPI  R26,LOW(0x15)
001164 f029      	BREQ _0x29F
001165 91a0 0202 	LDS  R26,_count_key1
001167 36a6      	CPI  R26,LOW(0x66)
001168 f009      	BREQ _0x29F
001169 c078      	RJMP _0x29E
                 _0x29F:
                 ; 0000 04CF                         {
                 ; 0000 04D0                         if      (point==1)
00116a 91a0 01fa 	LDS  R26,_point
00116c 30a1      	CPI  R26,LOW(0x1)
00116d f469      	BRNE _0x2A1
                 ; 0000 04D1                                 {
                 ; 0000 04D2                                 data_register=data_register-1;
00116e 940e 1c33 	CALL SUBOPT_0x8D
001170 940e 1c5c 	CALL SUBOPT_0x94
                 ; 0000 04D3                                 if ((data_register>0)&&(data_register<1000))point=2;
001172 f41c      	BRGE _0x2A3
001173 940e 1a10 	CALL SUBOPT_0x45
001175 f008      	BRLO _0x2A4
                 _0x2A3:
001176 c003      	RJMP _0x2A2
                 _0x2A4:
001177 e0e2      	LDI  R30,LOW(2)
001178 93e0 01fa 	STS  _point,R30
                 ; 0000 04D4                                 }
                 _0x2A2:
                 ; 0000 04D5                         else if (point==2)
00117a c04e      	RJMP _0x2A5
                 _0x2A1:
00117b 91a0 01fa 	LDS  R26,_point
00117d 30a2      	CPI  R26,LOW(0x2)
00117e f4d1      	BRNE _0x2A6
                 ; 0000 04D6                                 {
                 ; 0000 04D7                                 data_register=data_register-0.1;
00117f 940e 1c3c 	CALL SUBOPT_0x8F
001181 940e 1c5c 	CALL SUBOPT_0x94
                 ; 0000 04D8                                 if ((data_register>0)&&(data_register<100))point=3;
001183 f41c      	BRGE _0x2A8
001184 940e 1a08 	CALL SUBOPT_0x44
001186 f008      	BRLO _0x2A9
                 _0x2A8:
001187 c002      	RJMP _0x2A7
                 _0x2A9:
001188 e0e3      	LDI  R30,LOW(3)
001189 c00c      	RJMP _0x3DF
                 ; 0000 04D9                                 else if ((data_register<0)&&(data_register<=-100))point=1;
                 _0x2A7:
00118a adad      	LDD  R26,Y+61
00118b 23aa      	TST  R26
00118c f43a      	BRPL _0x2AC
00118d 940e 19f0 	CALL SUBOPT_0x41
00118f f019      	BREQ PC+4
001190 f010      	BRCS PC+3
001191 940c 1194 	JMP  _0x2AC
001193 c001      	RJMP _0x2AD
                 _0x2AC:
001194 c003      	RJMP _0x2AB
                 _0x2AD:
001195 e0e1      	LDI  R30,LOW(1)
                 _0x3DF:
001196 93e0 01fa 	STS  _point,R30
                 ; 0000 04DA                                 }
                 _0x2AB:
                 ; 0000 04DB                         else if (point==3)
001198 c030      	RJMP _0x2AE
                 _0x2A6:
001199 91a0 01fa 	LDS  R26,_point
00119b 30a3      	CPI  R26,LOW(0x3)
00119c f4d1      	BRNE _0x2AF
                 ; 0000 04DC                                 {
                 ; 0000 04DD                                 data_register=data_register-0.01;
00119d 940e 1c46 	CALL SUBOPT_0x91
00119f 940e 1c5c 	CALL SUBOPT_0x94
                 ; 0000 04DE                                 if ((data_register>0)&&(data_register<10))point=4;
0011a1 f41c      	BRGE _0x2B1
0011a2 940e 1a00 	CALL SUBOPT_0x43
0011a4 f008      	BRLO _0x2B2
                 _0x2B1:
0011a5 c002      	RJMP _0x2B0
                 _0x2B2:
0011a6 e0e4      	LDI  R30,LOW(4)
0011a7 c00c      	RJMP _0x3E0
                 ; 0000 04DF                                 else if ((data_register<0)&&(data_register<=-10))point=2;
                 _0x2B0:
0011a8 adad      	LDD  R26,Y+61
0011a9 23aa      	TST  R26
0011aa f43a      	BRPL _0x2B5
0011ab 940e 19f8 	CALL SUBOPT_0x42
0011ad f019      	BREQ PC+4
0011ae f010      	BRCS PC+3
0011af 940c 11b2 	JMP  _0x2B5
0011b1 c001      	RJMP _0x2B6
                 _0x2B5:
0011b2 c003      	RJMP _0x2B4
                 _0x2B6:
0011b3 e0e2      	LDI  R30,LOW(2)
                 _0x3E0:
0011b4 93e0 01fa 	STS  _point,R30
                 ; 0000 04E0 
                 ; 0000 04E1                                 }
                 _0x2B4:
                 ; 0000 04E2                         else if (point==4)
0011b6 c012      	RJMP _0x2B7
                 _0x2AF:
0011b7 91a0 01fa 	LDS  R26,_point
0011b9 30a4      	CPI  R26,LOW(0x4)
0011ba f471      	BRNE _0x2B8
                 ; 0000 04E3                                 {
                 ; 0000 04E4                                 data_register=data_register-0.001;
0011bb 940e 1bf6 	CALL SUBOPT_0x84
0011bd 940e 18fb 	CALL SUBOPT_0x1F
0011bf 940e 1d7f 	CALL __SUBF12
0011c1 940e 19df 	CALL SUBOPT_0x3E
                 ; 0000 04E5                                 if ((data_register<0))point=3;
0011c3 adad      	LDD  R26,Y+61
0011c4 23aa      	TST  R26
0011c5 f41a      	BRPL _0x2B9
0011c6 e0e3      	LDI  R30,LOW(3)
0011c7 93e0 01fa 	STS  _point,R30
                 ; 0000 04E6                                 }
                 _0x2B9:
                 ; 0000 04E7                         if (data_register<reg[3][count_register])data_register=reg[3][count_register];
                 _0x2B8:
                 _0x2B7:
                 _0x2AE:
                 _0x2A5:
0011c9 940e 1c60 	CALL SUBOPT_0x95
0011cb 940e 19e4 	CALL SUBOPT_0x3F
0011cd 940e 1e69 	CALL __CMPF12
0011cf f420      	BRSH _0x2BA
0011d0 940e 1c60 	CALL SUBOPT_0x95
0011d2 940e 19df 	CALL SUBOPT_0x3E
                 ; 0000 04E8                         if (count_key==0)count_key=60;if (count_key==21)count_key=20;
                 _0x2BA:
0011d4 91e0 0201 	LDS  R30,_count_key
0011d6 30e0      	CPI  R30,0
0011d7 f419      	BRNE _0x2BB
0011d8 e3ec      	LDI  R30,LOW(60)
0011d9 93e0 0201 	STS  _count_key,R30
                 _0x2BB:
0011db 91a0 0201 	LDS  R26,_count_key
0011dd 31a5      	CPI  R26,LOW(0x15)
0011de f419      	BRNE _0x2BC
0011df e1e4      	LDI  R30,LOW(20)
0011e0 93e0 0201 	STS  _count_key,R30
                 ; 0000 04E9                         }
                 _0x2BC:
                 ; 0000 04EA                 rekey();
                 _0x29E:
0011e2 940e 0629 	CALL _rekey
                 ; 0000 04EB                 }
                 ; 0000 04EC         else if ((mode!=100)&&(key_enter_press==0)&&(key_plus_press==0)){count_key=0;count_key1=0;count_key2=0;}
0011e4 c00f      	RJMP _0x2BD
                 _0x298:
0011e5 91a0 01f9 	LDS  R26,_mode
0011e7 36a4      	CPI  R26,LOW(0x64)
0011e8 f041      	BREQ _0x2BF
0011e9 e0a0      	LDI  R26,0
0011ea fc36      	SBRC R3,6
0011eb e0a1      	LDI  R26,1
0011ec 30a0      	CPI  R26,LOW(0x0)
0011ed f419      	BRNE _0x2BF
0011ee 940e 1856 	CALL SUBOPT_0x7
0011f0 f009      	BREQ _0x2C0
                 _0x2BF:
0011f1 c002      	RJMP _0x2BE
                 _0x2C0:
0011f2 940e 1c54 	CALL SUBOPT_0x93
                 ; 0000 04ED 
                 ; 0000 04EE         if ((key_enter_press_switch==1)&&(key_enter==1)&&(key_plus_press==0)&&(key_mines_press==0)&&(key_mode_press==0)&&(mode!=0)&&(mode!=10)&&(mode!=1))
                 _0x2BE:
                 _0x2BD:
0011f4 fe42      	SBRS R4,2
0011f5 c015      	RJMP _0x2C2
0011f6 fe32      	SBRS R3,2
0011f7 c013      	RJMP _0x2C2
0011f8 940e 1856 	CALL SUBOPT_0x7
0011fa f481      	BRNE _0x2C2
0011fb 940e 185b 	CALL SUBOPT_0x8
0011fd f469      	BRNE _0x2C2
0011fe e0a0      	LDI  R26,0
0011ff fc33      	SBRC R3,3
001200 e0a1      	LDI  R26,1
001201 30a0      	CPI  R26,LOW(0x0)
001202 f441      	BRNE _0x2C2
001203 91a0 01f9 	LDS  R26,_mode
001205 30a0      	CPI  R26,LOW(0x0)
001206 f021      	BREQ _0x2C2
001207 30aa      	CPI  R26,LOW(0xA)
001208 f011      	BREQ _0x2C2
001209 30a1      	CPI  R26,LOW(0x1)
00120a f409      	BRNE _0x2C3
                 _0x2C2:
00120b c078      	RJMP _0x2C1
                 _0x2C3:
                 ; 0000 04EF                 {
                 ; 0000 04F0                     if((count_register==A_18)|(count_register==A_19)|(count_register==CRCCONST)|(count_register==SOFTID)){;}
00120c 91a0 021f 	LDS  R26,_count_register
00120e e1e8      	LDI  R30,LOW(24)
00120f 940e 1bfb 	CALL SUBOPT_0x85
001211 e1e9      	LDI  R30,LOW(25)
001212 940e 1c01 	CALL SUBOPT_0x86
001214 e1eb      	LDI  R30,LOW(27)
001215 940e 1c01 	CALL SUBOPT_0x86
001217 e1ec      	LDI  R30,LOW(28)
001218 940e 1eaf 	CALL __EQB12
00121a 29e0      	OR   R30,R0
00121b f009      	BREQ _0x2C4
                 ; 0000 04F1                     else
00121c c067      	RJMP _0x2C5
                 _0x2C4:
                 ; 0000 04F2                     {
                 ; 0000 04F3                     reg[0][count_register]=data_register;
00121d 940e 1a49 	CALL SUBOPT_0x4E
00121f 0fae      	ADD  R26,R30
001220 1fbf      	ADC  R27,R31
001221 940e 1bf6 	CALL SUBOPT_0x84
001223 940e 1f3a 	CALL __EEPROMWRD
                 ; 0000 04F4 
                 ; 0000 04F5                     start_time_mode=sys_time;
001225 940e 1baa 	CALL SUBOPT_0x79
                 ; 0000 04F6                     if (count_register==A_07){ee_point=point;work_point=point;}
001227 91a0 021f 	LDS  R26,_count_register
001229 30ad      	CPI  R26,LOW(0xD)
00122a f411      	BRNE _0x2C6
00122b 940e 1c2c 	CALL SUBOPT_0x8C
                 ; 0000 04F7                     if (count_register==A_17)
                 _0x2C6:
00122d 91a0 021f 	LDS  R26,_count_register
00122f 31a7      	CPI  R26,LOW(0x17)
001230 f501      	BRNE _0x2C7
                 ; 0000 04F8                             {
                 ; 0000 04F9                             for (i=0;i<22;i++)reg[0][i]=reg[1][i];
001231 e0e0      	LDI  R30,LOW(0)
001232 93e0 0200 	STS  _i,R30
                 _0x2C9:
001234 91a0 0200 	LDS  R26,_i
001236 31a6      	CPI  R26,LOW(0x16)
001237 f4c8      	BRSH _0x2CA
001238 91e0 0200 	LDS  R30,_i
00123a e0a0      	LDI  R26,LOW(_reg)
00123b e0b0      	LDI  R27,HIGH(_reg)
00123c e0f0      	LDI  R31,0
00123d 940e 1e9a 	CALL __LSLW2
00123f 0fea      	ADD  R30,R26
001240 1ffb      	ADC  R31,R27
001241 010f      	MOVW R0,R30
                +
001242 e6ac     +LDI R26 , LOW ( _reg + ( 108 ) )
001243 e0b0     +LDI R27 , HIGH ( _reg + ( 108 ) )
                 	__POINTW2MN _reg,108
001244 91e0 0200 	LDS  R30,_i
001246 e0f0      	LDI  R31,0
001247 940e 1e9a 	CALL __LSLW2
001249 940e 1a51 	CALL SUBOPT_0x4F
00124b 01d0      	MOVW R26,R0
00124c 940e 1f3a 	CALL __EEPROMWRD
00124e 940e 18eb 	CALL SUBOPT_0x1C
001250 cfe3      	RJMP _0x2C9
                 _0x2CA:
                 ; 0000 04FA }
                 ; 0000 04FB                     set_digit_on(' ',3,'a','Ô');
                 _0x2C7:
001251 940e 1c68 	CALL SUBOPT_0x96
001253 940e 0480 	CALL _set_digit_on
                 ; 0000 04FC                     set_digit_off(' ',3,'a','Ô');
001255 940e 1c68 	CALL SUBOPT_0x96
001257 940e 049a 	CALL _set_digit_off
                 ; 0000 04FD                     set_led_on(0,0,0,1,0,0,0,0);
001259 940e 19bf 	CALL SUBOPT_0x38
00125b 940e 1bdb 	CALL SUBOPT_0x7E
00125d 940e 1bde 	CALL SUBOPT_0x7F
                 ; 0000 04FE                     set_led_off(0,0,0,1,0,0,0,0);
00125f 940e 1bdb 	CALL SUBOPT_0x7E
001261 940e 1a6b 	CALL SUBOPT_0x54
                 ; 0000 04FF                     for (i=0;i<100;i++)
001263 e0e0      	LDI  R30,LOW(0)
001264 93e0 0200 	STS  _i,R30
                 _0x2CC:
001266 91a0 0200 	LDS  R26,_i
001268 36a4      	CPI  R26,LOW(0x64)
001269 f468      	BRSH _0x2CD
                 ; 0000 0500                             {
                 ; 0000 0501                             delay_ms(10);
00126a e0ea      	LDI  R30,LOW(10)
00126b e0f0      	LDI  R31,HIGH(10)
00126c 940e 19d6 	CALL SUBOPT_0x3C
                 ; 0000 0502                             check_rx();
00126e d07e      	RCALL _check_rx
                 ; 0000 0503                             delay_ms(10);
00126f e0ea      	LDI  R30,LOW(10)
001270 e0f0      	LDI  R31,HIGH(10)
001271 940e 19d6 	CALL SUBOPT_0x3C
                 ; 0000 0504                             check_rx();
001273 d079      	RCALL _check_rx
                 ; 0000 0505                             }
001274 940e 18eb 	CALL SUBOPT_0x1C
001276 cfef      	RJMP _0x2CC
                 _0x2CD:
                 ; 0000 0506                     key_enter_press_switch=0;
001277 94e8      	CLT
001278 f842      	BLD  R4,2
                 ; 0000 0507                     set_digit_off(' ',' ',' ',' ');
001279 940e 1c71 	CALL SUBOPT_0x97
00127b 93ea      	ST   -Y,R30
00127c 940e 049a 	CALL _set_digit_off
                 ; 0000 0508                     start_time_mode=sys_time;start_time=sys_time;
00127e 940e 1baa 	CALL SUBOPT_0x79
001280 940e 1a6f 	CALL SUBOPT_0x55
                 ; 0000 0509                     f_m1=0;
001282 94e8      	CLT
001283 f8f2      	BLD  R15,2
                 ; 0000 050A                     }
                 _0x2C5:
                 ; 0000 050B                 }
                 ; 0000 050C         if ((key_mode_press_switch==1)&&(key_4==1))
                 _0x2C1:
001284 fe37      	SBRS R3,7
001285 c002      	RJMP _0x2CF
001286 9987      	SBIC 0x10,7
001287 c001      	RJMP _0x2D0
                 _0x2CF:
001288 c034      	RJMP _0x2CE
                 _0x2D0:
                 ; 0000 050D                 {
                 ; 0000 050E                 key_mode_press_switch=0;f_m1=0;
001289 94e8      	CLT
00128a f837      	BLD  R3,7
00128b f8f2      	BLD  R15,2
                 ; 0000 050F                 start_time_mode=sys_time;
00128c 940e 1baa 	CALL SUBOPT_0x79
                 ; 0000 0510                 switch (mode)
00128e 91e0 01f9 	LDS  R30,_mode
                 ; 0000 0511                         {
                 ; 0000 0512                         case 0: mode=1;count_register=1;break;
001290 30e0      	CPI  R30,0
001291 f431      	BRNE _0x2D4
001292 e0e1      	LDI  R30,LOW(1)
001293 93e0 01f9 	STS  _mode,R30
001295 93e0 021f 	STS  _count_register,R30
001297 c025      	RJMP _0x2D3
                 ; 0000 0513                         case 1: mode=2;data_register=reg[0][count_register];break;
                 _0x2D4:
001298 30e1      	CPI  R30,LOW(0x1)
001299 f451      	BRNE _0x2D5
00129a e0e2      	LDI  R30,LOW(2)
00129b 93e0 01f9 	STS  _mode,R30
00129d 940e 1a49 	CALL SUBOPT_0x4E
00129f 940e 1a51 	CALL SUBOPT_0x4F
0012a1 940e 19df 	CALL SUBOPT_0x3E
0012a3 c019      	RJMP _0x2D3
                 ; 0000 0514                         case 2: mode=1;break;
                 _0x2D5:
0012a4 30e2      	CPI  R30,LOW(0x2)
0012a5 f411      	BRNE _0x2D6
0012a6 e0e1      	LDI  R30,LOW(1)
0012a7 c013      	RJMP _0x3E1
                 ; 0000 0515                         case 10:mode=11;data_register=reg[0][count_register];break;
                 _0x2D6:
0012a8 30ea      	CPI  R30,LOW(0xA)
0012a9 f451      	BRNE _0x2D7
0012aa e0eb      	LDI  R30,LOW(11)
0012ab 93e0 01f9 	STS  _mode,R30
0012ad 940e 1a49 	CALL SUBOPT_0x4E
0012af 940e 1a51 	CALL SUBOPT_0x4F
0012b1 940e 19df 	CALL SUBOPT_0x3E
0012b3 c009      	RJMP _0x2D3
                 ; 0000 0516                         case 11:mode=10;break;
                 _0x2D7:
0012b4 30eb      	CPI  R30,LOW(0xB)
0012b5 f411      	BRNE _0x2D8
0012b6 e0ea      	LDI  R30,LOW(10)
0012b7 c003      	RJMP _0x3E1
                 ; 0000 0517                         case 100:mode=100;break;
                 _0x2D8:
0012b8 36e4      	CPI  R30,LOW(0x64)
0012b9 f419      	BRNE _0x2D3
0012ba e6e4      	LDI  R30,LOW(100)
                 _0x3E1:
0012bb 93e0 01f9 	STS  _mode,R30
                 ; 0000 0518                         }
                 _0x2D3:
                 ; 0000 0519                 }
                 ; 0000 051A 
                 ; 0000 051B         if (((sys_time-start_time)>250))
                 _0x2CE:
0012bd 940e 1a24 	CALL SUBOPT_0x49
                +
0012bf 3feb     +CPI R30 , LOW ( 0xFB )
0012c0 e0a0     +LDI R26 , HIGH ( 0xFB )
0012c1 07fa     +CPC R31 , R26
0012c2 e0a0     +LDI R26 , BYTE3 ( 0xFB )
0012c3 076a     +CPC R22 , R26
0012c4 e0a0     +LDI R26 , BYTE4 ( 0xFB )
0012c5 077a     +CPC R23 , R26
                 	__CPD1N 0xFB
0012c6 f0fc      	BRLT _0x2DA
                 ; 0000 051C                 {
                 ; 0000 051D                 set_digit_on(tis,sot,des,ed);
0012c7 940e 1946 	CALL SUBOPT_0x2A
0012c9 940e 0480 	CALL _set_digit_on
                 ; 0000 051E                 if ((mode==0)||(key_plus_press==1)||(key_mines_press==1)) set_digit_off(tis,sot,des,ed);
0012cb 91a0 01f9 	LDS  R26,_mode
0012cd 30a0      	CPI  R26,LOW(0x0)
0012ce f021      	BREQ _0x2DC
0012cf fc34      	SBRC R3,4
0012d0 c002      	RJMP _0x2DC
0012d1 fe35      	SBRS R3,5
0012d2 c00c      	RJMP _0x2DB
                 _0x2DC:
0012d3 91e0 01ff 	LDS  R30,_tis
0012d5 93ea      	ST   -Y,R30
0012d6 91e0 01fe 	LDS  R30,_sot
0012d8 93ea      	ST   -Y,R30
0012d9 91e0 01fd 	LDS  R30,_des
0012db 93ea      	ST   -Y,R30
0012dc 91e0 01fc 	LDS  R30,_ed
0012de c002      	RJMP _0x3E2
                 ; 0000 051F                 else set_digit_off(' ',' ',' ',' ');
                 _0x2DB:
0012df 940e 1c71 	CALL SUBOPT_0x97
                 _0x3E2:
0012e1 93ea      	ST   -Y,R30
0012e2 940e 049a 	CALL _set_digit_off
                 ; 0000 0520                 start_time=sys_time;
0012e4 940e 1a6f 	CALL SUBOPT_0x55
                 ; 0000 0521                 }
                 ; 0000 0522         check_rx();
                 _0x2DA:
0012e6 d006      	RCALL _check_rx
                 ; 0000 0523         };
0012e7 940c 09ee 	JMP  _0x16E
                 ; 0000 0524         }
                 ; 0000 0525 else while(1)
                 _0x132:
                 _0x2E0:
                 ; 0000 0526 {delay_ms(1000);}
0012e9 940e 19c4 	CALL SUBOPT_0x39
0012eb cffd      	RJMP _0x2E0
                 ; 0000 0527 
                 ; 0000 0528 }         //main Á‡ÍÓÌ˜ËÎÒˇ.
                 _0x2E3:
0012ec cfff      	RJMP _0x2E3
                 ;void check_rx()
                 ; 0000 052A         {
                 _check_rx:
                 ; 0000 052B 	if (rx_c==1)			//
0012ed fe20      	SBRS R2,0
0012ee c04f      	RJMP _0x2E4
                 ; 0000 052C 		{
                 ; 0000 052D                 //tmpVal++;		//
                 ; 0000 052E 		check_add_cr();
0012ef d390      	RCALL _check_add_cr
                 ; 0000 052F //  	        mov_buf(error);
                 ; 0000 0530 //  	        mov_buf(rx_buffer[rx_wr_index-1]);
                 ; 0000 0531 //  	        mov_buf(crc>>8);
                 ; 0000 0532 //  	        mov_buf(rx_buffer[rx_wr_index-2]);
                 ; 0000 0533 //                  mov_buf(crc&0x00FF);
                 ; 0000 0534 //                  crc_end();                      //
                 ; 0000 0535 		crc=0xffff;
0012f0 940e 191e 	CALL SUBOPT_0x26
                 ; 0000 0536 		if (error==0)
0012f2 91e0 022d 	LDS  R30,_error
0012f4 30e0      	CPI  R30,0
0012f5 f011      	BREQ PC+3
0012f6 940c 1337 	JMP _0x2E5
                 ; 0000 0537 		        { //tmpVal++;
                 ; 0000 0538 //               		switch (rx_buffer[1])
                 ; 0000 0539 //                                {
                 ; 0000 053A //                		case 0x1:
                 ; 0000 053B                         if (rx_buffer[1]==1)
                +
0012f8 91a0 0161+LDS R26 , _rx_buffer + ( 1 )
                 	__GETB2MN _rx_buffer,1
0012fa 30a1      	CPI  R26,LOW(0x1)
0012fb f491      	BRNE _0x2E6
                 ; 0000 053C                 		        {
                 ; 0000 053D         	        	        if (rx_counter==8)
0012fc e0e8      	LDI  R30,LOW(8)
0012fd 15e6      	CP   R30,R6
0012fe f461      	BRNE _0x2E7
                 ; 0000 053E         		                        {
                 ; 0000 053F                 		                if ((rx_buffer[3]+rx_buffer[5])<5) response_m_aa1();
                +
0012ff 91a0 0163+LDS R26 , _rx_buffer + ( 3 )
                 	__GETB2MN _rx_buffer,3
                +
001301 91e0 0165+LDS R30 , _rx_buffer + ( 5 )
                 	__GETB1MN _rx_buffer,5
001303 0fae      	ADD  R26,R30
001304 30a5      	CPI  R26,LOW(0x5)
001305 f410      	BRSH _0x2E8
001306 d2a8      	RCALL _response_m_aa1
                 ; 0000 0540                                                 else  response_m_err(2);
001307 c002      	RJMP _0x2E9
                 _0x2E8:
001308 940e 1c76 	CALL SUBOPT_0x98
                 ; 0000 0541                                                 }
                 _0x2E9:
                 ; 0000 0542         	                        else response_m_err(3);
00130a c002      	RJMP _0x2EA
                 _0x2E7:
00130b 940e 1c7a 	CALL SUBOPT_0x99
                 ; 0000 0543 //                	          	break;
                 ; 0000 0544                 		        }
                 _0x2EA:
                 ; 0000 0545 //                		case 0x48:
                 ; 0000 0546                         else if (rx_buffer[1]==0x48)
00130d c029      	RJMP _0x2EB
                 _0x2E6:
                +
00130e 91a0 0161+LDS R26 , _rx_buffer + ( 1 )
                 	__GETB2MN _rx_buffer,1
001310 34a8      	CPI  R26,LOW(0x48)
001311 f479      	BRNE _0x2EC
                 ; 0000 0547                 		        {
                 ; 0000 0548                                        // tmpVal++;
                 ; 0000 0549         	        	        if (rx_counter==8)
001312 e0e8      	LDI  R30,LOW(8)
001313 15e6      	CP   R30,R6
001314 f449      	BRNE _0x2ED
                 ; 0000 054A         		                        {
                 ; 0000 054B                 		                if (rx_buffer[2]<3) response_m_aa48();
                +
001315 91a0 0162+LDS R26 , _rx_buffer + ( 2 )
                 	__GETB2MN _rx_buffer,2
001317 30a3      	CPI  R26,LOW(0x3)
001318 f410      	BRSH _0x2EE
001319 d325      	RCALL _response_m_aa48
                 ; 0000 054C                                                 else  response_m_err(2);
00131a c002      	RJMP _0x2EF
                 _0x2EE:
00131b 940e 1c76 	CALL SUBOPT_0x98
                 ; 0000 054D                                                // tmpVal++;
                 ; 0000 054E                                                 }
                 _0x2EF:
                 ; 0000 054F         	                        else response_m_err(3);
00131d c002      	RJMP _0x2F0
                 _0x2ED:
00131e 940e 1c7a 	CALL SUBOPT_0x99
                 ; 0000 0550 //                	          	break;
                 ; 0000 0551                 		        }
                 _0x2F0:
                 ; 0000 0552 //       		                case 0x46:
                 ; 0000 0553                         else if (rx_buffer[1]==0x46)
001320 c016      	RJMP _0x2F1
                 _0x2EC:
                +
001321 91a0 0161+LDS R26 , _rx_buffer + ( 1 )
                 	__GETB2MN _rx_buffer,1
001323 34a6      	CPI  R26,LOW(0x46)
001324 f479      	BRNE _0x2F2
                 ; 0000 0554          		                {
                 ; 0000 0555                                         if (rx_counter==10)
001325 e0ea      	LDI  R30,LOW(10)
001326 15e6      	CP   R30,R6
001327 f449      	BRNE _0x2F3
                 ; 0000 0556                                                 {
                 ; 0000 0557                                                 if (rx_buffer[2]<3) response_m_aa46();
                +
001328 91a0 0162+LDS R26 , _rx_buffer + ( 2 )
                 	__GETB2MN _rx_buffer,2
00132a 30a3      	CPI  R26,LOW(0x3)
00132b f410      	BRSH _0x2F4
00132c d2d2      	RCALL _response_m_aa46
                 ; 0000 0558                                                 else response_m_err(2);
00132d c002      	RJMP _0x2F5
                 _0x2F4:
00132e 940e 1c76 	CALL SUBOPT_0x98
                 ; 0000 0559                                                 }
                 _0x2F5:
                 ; 0000 055A                  	          	else response_m_err(3);
001330 c002      	RJMP _0x2F6
                 _0x2F3:
001331 940e 1c7a 	CALL SUBOPT_0x99
                 ; 0000 055B //                                        rx_c=0;rx_m=0;rx_counter=0;
                 ; 0000 055C //        		                crc=0xffff;
                 ; 0000 055D //                                        rx_wr_index=0;
                 ; 0000 055E //         	                  	break;
                 ; 0000 055F          		                }
                 _0x2F6:
                 ; 0000 0560 //                		default:response_m_err(1);
                 ; 0000 0561                         else response_m_err(1);
001333 c003      	RJMP _0x2F7
                 _0x2F2:
001334 e0e1      	LDI  R30,LOW(1)
001335 93ea      	ST   -Y,R30
001336 d33c      	RCALL _response_m_err
                 ; 0000 0562 //                		}
                 ; 0000 0563         	        }
                 _0x2F7:
                 _0x2F1:
                 _0x2EB:
                 ; 0000 0564                 rx_c=0;rx_m=0;rx_counter=0;
                 _0x2E5:
001337 94e8      	CLT
001338 f820      	BLD  R2,0
001339 f822      	BLD  R2,2
00133a 2466      	CLR  R6
                 ; 0000 0565 		crc=0xffff;
00133b 940e 191e 	CALL SUBOPT_0x26
                 ; 0000 0566                 rx_wr_index=0;
00133d 24bb      	CLR  R11
                 ; 0000 0567        		}
                 ; 0000 0568 	}
                 _0x2E4:
00133e 9508      	RET
                 ;//--------------------------------------//
                 ;float find_reg(unsigned int a)
                 ; 0000 056B         {
                 _find_reg:
                 ; 0000 056C         float d;
                 ; 0000 056D         if      (a==0x0000)              d=adc_value1;
00133f 9724      	SBIW R28,4
                 ;	a -> Y+4
                 ;	d -> Y+0
001340 81ec      	LDD  R30,Y+4
001341 81fd      	LDD  R31,Y+4+1
001342 9730      	SBIW R30,0
001343 f429      	BRNE _0x2F8
001344 940e 1bb9 	CALL SUBOPT_0x7B
001346 940e 1c7e 	CALL SUBOPT_0x9A
                 ; 0000 056E         else if (a==0x0001)              d=adc_value2;
001348 c175      	RJMP _0x2F9
                 _0x2F8:
001349 81ac      	LDD  R26,Y+4
00134a 81bd      	LDD  R27,Y+4+1
00134b 9711      	SBIW R26,1
00134c f429      	BRNE _0x2FA
00134d 940e 1bc2 	CALL SUBOPT_0x7C
00134f 940e 1c7e 	CALL SUBOPT_0x9A
                 ; 0000 056F         else if (a==0x0002)              d=buf[buf_end];
001351 c16c      	RJMP _0x2FB
                 _0x2FA:
001352 81ac      	LDD  R26,Y+4
001353 81bd      	LDD  R27,Y+4+1
001354 9712      	SBIW R26,2
001355 f449      	BRNE _0x2FC
001356 940e 18c4 	CALL SUBOPT_0x19
001358 940e 1900 	CALL SUBOPT_0x20
00135a 940e 190a 	CALL SUBOPT_0x22
00135c 940e 1c7e 	CALL SUBOPT_0x9A
                 ; 0000 0570         else if (a==0x0003)
00135e c15f      	RJMP _0x2FD
                 _0x2FC:
00135f 81ac      	LDD  R26,Y+4
001360 81bd      	LDD  R27,Y+4+1
001361 9713      	SBIW R26,3
001362 f011      	BREQ PC+3
001363 940c 139d 	JMP _0x2FE
                 ; 0000 0571                 {
                 ; 0000 0572                 if (avaria==0) d=1;
001365 fc43      	SBRC R4,3
001366 c005      	RJMP _0x2FF
001367 940e 190f 	CALL SUBOPT_0x23
001369 940e 1c7e 	CALL SUBOPT_0x9A
                 ; 0000 0573                 else d=0;
00136b c003      	RJMP _0x300
                 _0x2FF:
00136c e0e0      	LDI  R30,LOW(0)
00136d 940e 1f0a 	CALL __CLRD1S0
                 ; 0000 0574                 if (alarm2==1) d=d+2;
                 _0x300:
00136f fe45      	SBRS R4,5
001370 c009      	RJMP _0x301
001371 940e 1c81 	CALL SUBOPT_0x9B
                +
001373 e0a0     +LDI R26 , LOW ( 0x40000000 )
001374 e0b0     +LDI R27 , HIGH ( 0x40000000 )
001375 e080     +LDI R24 , BYTE3 ( 0x40000000 )
001376 e490     +LDI R25 , BYTE4 ( 0x40000000 )
                 	__GETD2N 0x40000000
001377 940e 1d86 	CALL __ADDF12
001379 c002      	RJMP _0x3E3
                 ; 0000 0575                 else d=d;
                 _0x301:
00137a 940e 1c81 	CALL SUBOPT_0x9B
                 _0x3E3:
00137c 940e 1f05 	CALL __PUTD1S0
                 ; 0000 0576                 if (alarm1==1) d=d+4;
00137e fe44      	SBRS R4,4
00137f c009      	RJMP _0x303
001380 940e 1c81 	CALL SUBOPT_0x9B
                +
001382 e0a0     +LDI R26 , LOW ( 0x40800000 )
001383 e0b0     +LDI R27 , HIGH ( 0x40800000 )
001384 e880     +LDI R24 , BYTE3 ( 0x40800000 )
001385 e490     +LDI R25 , BYTE4 ( 0x40800000 )
                 	__GETD2N 0x40800000
001386 940e 1d86 	CALL __ADDF12
001388 c002      	RJMP _0x3E4
                 ; 0000 0577                 else d=d;
                 _0x303:
001389 940e 1c81 	CALL SUBOPT_0x9B
                 _0x3E4:
00138b 940e 1f05 	CALL __PUTD1S0
                 ; 0000 0578                 if (avaria==1) d=d+8;
00138d fe43      	SBRS R4,3
00138e c009      	RJMP _0x305
00138f 940e 1c81 	CALL SUBOPT_0x9B
                +
001391 e0a0     +LDI R26 , LOW ( 0x41000000 )
001392 e0b0     +LDI R27 , HIGH ( 0x41000000 )
001393 e080     +LDI R24 , BYTE3 ( 0x41000000 )
001394 e491     +LDI R25 , BYTE4 ( 0x41000000 )
                 	__GETD2N 0x41000000
001395 940e 1d86 	CALL __ADDF12
001397 c002      	RJMP _0x3E5
                 ; 0000 0579                 else d=d;
                 _0x305:
001398 940e 1c81 	CALL SUBOPT_0x9B
                 _0x3E5:
00139a 940e 1f05 	CALL __PUTD1S0
                 ; 0000 057A                 }
                 ; 0000 057B 
                 ; 0000 057C 
                 ; 0000 057D         else if (a==0x0100)              d=reg[0][Y_01];
00139c c121      	RJMP _0x307
                 _0x2FE:
00139d 81ac      	LDD  R26,Y+4
00139e 81bd      	LDD  R27,Y+4+1
00139f 30a0      	CPI  R26,LOW(0x100)
0013a0 e0e1      	LDI  R30,HIGH(0x100)
0013a1 07be      	CPC  R27,R30
0013a2 f429      	BRNE _0x308
0013a3 940e 1914 	CALL SUBOPT_0x24
0013a5 940e 1c7e 	CALL SUBOPT_0x9A
                 ; 0000 057E         else if (a==0x0101)              d=reg[0][Y_02];
0013a7 c116      	RJMP _0x309
                 _0x308:
0013a8 81ac      	LDD  R26,Y+4
0013a9 81bd      	LDD  R27,Y+4+1
0013aa 30a1      	CPI  R26,LOW(0x101)
0013ab e0e1      	LDI  R30,HIGH(0x101)
0013ac 07be      	CPC  R27,R30
0013ad f429      	BRNE _0x30A
0013ae 940e 1919 	CALL SUBOPT_0x25
0013b0 940e 1c7e 	CALL SUBOPT_0x9A
                 ; 0000 057F         else if (a==0x0102)              d=reg[0][Z_01];
0013b2 c10b      	RJMP _0x30B
                 _0x30A:
0013b3 81ac      	LDD  R26,Y+4
0013b4 81bd      	LDD  R27,Y+4+1
0013b5 30a2      	CPI  R26,LOW(0x102)
0013b6 e0e1      	LDI  R30,HIGH(0x102)
0013b7 07be      	CPC  R27,R30
0013b8 f429      	BRNE _0x30C
                +
0013b9 e0ac     +LDI R26 , LOW ( _reg + ( 12 ) )
0013ba e0b0     +LDI R27 , HIGH ( _reg + ( 12 ) )
                 	__POINTW2MN _reg,12
0013bb 940e 1c84 	CALL SUBOPT_0x9C
                 ; 0000 0580         else if (a==0x0103)              d=reg[0][Z_02];
0013bd c100      	RJMP _0x30D
                 _0x30C:
0013be 81ac      	LDD  R26,Y+4
0013bf 81bd      	LDD  R27,Y+4+1
0013c0 30a3      	CPI  R26,LOW(0x103)
0013c1 e0e1      	LDI  R30,HIGH(0x103)
0013c2 07be      	CPC  R27,R30
0013c3 f429      	BRNE _0x30E
                +
0013c4 e1a0     +LDI R26 , LOW ( _reg + ( 16 ) )
0013c5 e0b0     +LDI R27 , HIGH ( _reg + ( 16 ) )
                 	__POINTW2MN _reg,16
0013c6 940e 1c84 	CALL SUBOPT_0x9C
                 ; 0000 0581         else if (a==0x0104)              d=reg[0][P___];
0013c8 c0f5      	RJMP _0x30F
                 _0x30E:
0013c9 81ac      	LDD  R26,Y+4
0013ca 81bd      	LDD  R27,Y+4+1
0013cb 30a4      	CPI  R26,LOW(0x104)
0013cc e0e1      	LDI  R30,HIGH(0x104)
0013cd 07be      	CPC  R27,R30
0013ce f429      	BRNE _0x310
                +
0013cf e1a4     +LDI R26 , LOW ( _reg + ( 20 ) )
0013d0 e0b0     +LDI R27 , HIGH ( _reg + ( 20 ) )
                 	__POINTW2MN _reg,20
0013d1 940e 1c84 	CALL SUBOPT_0x9C
                 ; 0000 0582         else if (a==0x0105)              d=reg[0][C___];
0013d3 c0ea      	RJMP _0x311
                 _0x310:
0013d4 81ac      	LDD  R26,Y+4
0013d5 81bd      	LDD  R27,Y+4+1
0013d6 30a5      	CPI  R26,LOW(0x105)
0013d7 e0e1      	LDI  R30,HIGH(0x105)
0013d8 07be      	CPC  R27,R30
0013d9 f429      	BRNE _0x312
0013da 940e 1b80 	CALL SUBOPT_0x73
0013dc 940e 1c7e 	CALL SUBOPT_0x9A
                 ; 0000 0583 
                 ; 0000 0584         else if (a==0x0200)              d=reg[0][A_01];
0013de c0df      	RJMP _0x313
                 _0x312:
0013df 81ac      	LDD  R26,Y+4
0013e0 81bd      	LDD  R27,Y+4+1
0013e1 30a0      	CPI  R26,LOW(0x200)
0013e2 e0e2      	LDI  R30,HIGH(0x200)
0013e3 07be      	CPC  R27,R30
0013e4 f429      	BRNE _0x314
                +
0013e5 e1ac     +LDI R26 , LOW ( _reg + ( 28 ) )
0013e6 e0b0     +LDI R27 , HIGH ( _reg + ( 28 ) )
                 	__POINTW2MN _reg,28
0013e7 940e 1c84 	CALL SUBOPT_0x9C
                 ; 0000 0585         else if (a==0x0201)              d=reg[0][A_02];
0013e9 c0d4      	RJMP _0x315
                 _0x314:
0013ea 81ac      	LDD  R26,Y+4
0013eb 81bd      	LDD  R27,Y+4+1
0013ec 30a1      	CPI  R26,LOW(0x201)
0013ed e0e2      	LDI  R30,HIGH(0x201)
0013ee 07be      	CPC  R27,R30
0013ef f429      	BRNE _0x316
0013f0 940e 1b85 	CALL SUBOPT_0x74
0013f2 940e 1c7e 	CALL SUBOPT_0x9A
                 ; 0000 0586         else if (a==0x0202)              d=reg[0][A_03];
0013f4 c0c9      	RJMP _0x317
                 _0x316:
0013f5 81ac      	LDD  R26,Y+4
0013f6 81bd      	LDD  R27,Y+4+1
0013f7 30a2      	CPI  R26,LOW(0x202)
0013f8 e0e2      	LDI  R30,HIGH(0x202)
0013f9 07be      	CPC  R27,R30
0013fa f429      	BRNE _0x318
                +
0013fb e2a4     +LDI R26 , LOW ( _reg + ( 36 ) )
0013fc e0b0     +LDI R27 , HIGH ( _reg + ( 36 ) )
                 	__POINTW2MN _reg,36
0013fd 940e 1c84 	CALL SUBOPT_0x9C
                 ; 0000 0587         else if (a==0x0203)              d=reg[0][A_04];
0013ff c0be      	RJMP _0x319
                 _0x318:
001400 81ac      	LDD  R26,Y+4
001401 81bd      	LDD  R27,Y+4+1
001402 30a3      	CPI  R26,LOW(0x203)
001403 e0e2      	LDI  R30,HIGH(0x203)
001404 07be      	CPC  R27,R30
001405 f429      	BRNE _0x31A
                +
001406 e2a8     +LDI R26 , LOW ( _reg + ( 40 ) )
001407 e0b0     +LDI R27 , HIGH ( _reg + ( 40 ) )
                 	__POINTW2MN _reg,40
001408 940e 1c84 	CALL SUBOPT_0x9C
                 ; 0000 0588         else if (a==0x0204)              d=reg[0][A_05];
00140a c0b3      	RJMP _0x31B
                 _0x31A:
00140b 81ac      	LDD  R26,Y+4
00140c 81bd      	LDD  R27,Y+4+1
00140d 30a4      	CPI  R26,LOW(0x204)
00140e e0e2      	LDI  R30,HIGH(0x204)
00140f 07be      	CPC  R27,R30
001410 f429      	BRNE _0x31C
001411 940e 1bb4 	CALL SUBOPT_0x7A
001413 940e 1c7e 	CALL SUBOPT_0x9A
                 ; 0000 0589         else if (a==0x0205)              d=reg[0][A_06];
001415 c0a8      	RJMP _0x31D
                 _0x31C:
001416 81ac      	LDD  R26,Y+4
001417 81bd      	LDD  R27,Y+4+1
001418 30a5      	CPI  R26,LOW(0x205)
001419 e0e2      	LDI  R30,HIGH(0x205)
00141a 07be      	CPC  R27,R30
00141b f429      	BRNE _0x31E
00141c 940e 1a91 	CALL SUBOPT_0x58
00141e 940e 1c7e 	CALL SUBOPT_0x9A
                 ; 0000 058A         else if (a==0x0206)              d=reg[0][A_07];
001420 c09d      	RJMP _0x31F
                 _0x31E:
001421 81ac      	LDD  R26,Y+4
001422 81bd      	LDD  R27,Y+4+1
001423 30a6      	CPI  R26,LOW(0x206)
001424 e0e2      	LDI  R30,HIGH(0x206)
001425 07be      	CPC  R27,R30
001426 f429      	BRNE _0x320
001427 940e 19da 	CALL SUBOPT_0x3D
001429 940e 1c7e 	CALL SUBOPT_0x9A
                 ; 0000 058B         else if (a==0x0207)              d=reg[0][A_08];
00142b c092      	RJMP _0x321
                 _0x320:
00142c 81ac      	LDD  R26,Y+4
00142d 81bd      	LDD  R27,Y+4+1
00142e 30a7      	CPI  R26,LOW(0x207)
00142f e0e2      	LDI  R30,HIGH(0x207)
001430 07be      	CPC  R27,R30
001431 f429      	BRNE _0x322
                +
001432 e3a8     +LDI R26 , LOW ( _reg + ( 56 ) )
001433 e0b0     +LDI R27 , HIGH ( _reg + ( 56 ) )
                 	__POINTW2MN _reg,56
001434 940e 1c84 	CALL SUBOPT_0x9C
                 ; 0000 058C         else if (a==0x0208)              d=reg[0][A_09];
001436 c087      	RJMP _0x323
                 _0x322:
001437 81ac      	LDD  R26,Y+4
001438 81bd      	LDD  R27,Y+4+1
001439 30a8      	CPI  R26,LOW(0x208)
00143a e0e2      	LDI  R30,HIGH(0x208)
00143b 07be      	CPC  R27,R30
00143c f429      	BRNE _0x324
                +
00143d e3ac     +LDI R26 , LOW ( _reg + ( 60 ) )
00143e e0b0     +LDI R27 , HIGH ( _reg + ( 60 ) )
                 	__POINTW2MN _reg,60
00143f 940e 1c84 	CALL SUBOPT_0x9C
                 ; 0000 058D         else if (a==0x0209)              d=reg[0][A_10];
001441 c07c      	RJMP _0x325
                 _0x324:
001442 81ac      	LDD  R26,Y+4
001443 81bd      	LDD  R27,Y+4+1
001444 30a9      	CPI  R26,LOW(0x209)
001445 e0e2      	LDI  R30,HIGH(0x209)
001446 07be      	CPC  R27,R30
001447 f429      	BRNE _0x326
                +
001448 e4a0     +LDI R26 , LOW ( _reg + ( 64 ) )
001449 e0b0     +LDI R27 , HIGH ( _reg + ( 64 ) )
                 	__POINTW2MN _reg,64
00144a 940e 1c84 	CALL SUBOPT_0x9C
                 ; 0000 058E         else if (a==0x020A)              d=reg[0][A_11];
00144c c071      	RJMP _0x327
                 _0x326:
00144d 81ac      	LDD  R26,Y+4
00144e 81bd      	LDD  R27,Y+4+1
00144f 30aa      	CPI  R26,LOW(0x20A)
001450 e0e2      	LDI  R30,HIGH(0x20A)
001451 07be      	CPC  R27,R30
001452 f429      	BRNE _0x328
                +
001453 e4a4     +LDI R26 , LOW ( _reg + ( 68 ) )
001454 e0b0     +LDI R27 , HIGH ( _reg + ( 68 ) )
                 	__POINTW2MN _reg,68
001455 940e 1c84 	CALL SUBOPT_0x9C
                 ; 0000 058F         else if (a==0x020B)              d=reg[0][A_12];
001457 c066      	RJMP _0x329
                 _0x328:
001458 81ac      	LDD  R26,Y+4
001459 81bd      	LDD  R27,Y+4+1
00145a 30ab      	CPI  R26,LOW(0x20B)
00145b e0e2      	LDI  R30,HIGH(0x20B)
00145c 07be      	CPC  R27,R30
00145d f429      	BRNE _0x32A
                +
00145e e4a8     +LDI R26 , LOW ( _reg + ( 72 ) )
00145f e0b0     +LDI R27 , HIGH ( _reg + ( 72 ) )
                 	__POINTW2MN _reg,72
001460 940e 1c84 	CALL SUBOPT_0x9C
                 ; 0000 0590         else if (a==0x020C)              d=reg[0][A_13];
001462 c05b      	RJMP _0x32B
                 _0x32A:
001463 81ac      	LDD  R26,Y+4
001464 81bd      	LDD  R27,Y+4+1
001465 30ac      	CPI  R26,LOW(0x20C)
001466 e0e2      	LDI  R30,HIGH(0x20C)
001467 07be      	CPC  R27,R30
001468 f429      	BRNE _0x32C
                +
001469 e4ac     +LDI R26 , LOW ( _reg + ( 76 ) )
00146a e0b0     +LDI R27 , HIGH ( _reg + ( 76 ) )
                 	__POINTW2MN _reg,76
00146b 940e 1c84 	CALL SUBOPT_0x9C
                 ; 0000 0591         else if (a==0x020D)              d=reg[0][A_14];
00146d c050      	RJMP _0x32D
                 _0x32C:
00146e 81ac      	LDD  R26,Y+4
00146f 81bd      	LDD  R27,Y+4+1
001470 30ad      	CPI  R26,LOW(0x20D)
001471 e0e2      	LDI  R30,HIGH(0x20D)
001472 07be      	CPC  R27,R30
001473 f429      	BRNE _0x32E
                +
001474 e5a0     +LDI R26 , LOW ( _reg + ( 80 ) )
001475 e0b0     +LDI R27 , HIGH ( _reg + ( 80 ) )
                 	__POINTW2MN _reg,80
001476 940e 1c84 	CALL SUBOPT_0x9C
                 ; 0000 0592         else if (a==0x020E)              d=reg[0][A_15];
001478 c045      	RJMP _0x32F
                 _0x32E:
001479 81ac      	LDD  R26,Y+4
00147a 81bd      	LDD  R27,Y+4+1
00147b 30ae      	CPI  R26,LOW(0x20E)
00147c e0e2      	LDI  R30,HIGH(0x20E)
00147d 07be      	CPC  R27,R30
00147e f429      	BRNE _0x330
                +
00147f e5a4     +LDI R26 , LOW ( _reg + ( 84 ) )
001480 e0b0     +LDI R27 , HIGH ( _reg + ( 84 ) )
                 	__POINTW2MN _reg,84
001481 940e 1c84 	CALL SUBOPT_0x9C
                 ; 0000 0593         else if (a==0x020F)              d=reg[0][A_16];
001483 c03a      	RJMP _0x331
                 _0x330:
001484 81ac      	LDD  R26,Y+4
001485 81bd      	LDD  R27,Y+4+1
001486 30af      	CPI  R26,LOW(0x20F)
001487 e0e2      	LDI  R30,HIGH(0x20F)
001488 07be      	CPC  R27,R30
001489 f429      	BRNE _0x332
                +
00148a e5a8     +LDI R26 , LOW ( _reg + ( 88 ) )
00148b e0b0     +LDI R27 , HIGH ( _reg + ( 88 ) )
                 	__POINTW2MN _reg,88
00148c 940e 1c84 	CALL SUBOPT_0x9C
                 ; 0000 0594         else if (a==0x0210)              d=reg[0][A_17];
00148e c02f      	RJMP _0x333
                 _0x332:
00148f 81ac      	LDD  R26,Y+4
001490 81bd      	LDD  R27,Y+4+1
001491 31a0      	CPI  R26,LOW(0x210)
001492 e0e2      	LDI  R30,HIGH(0x210)
001493 07be      	CPC  R27,R30
001494 f429      	BRNE _0x334
                +
001495 e5ac     +LDI R26 , LOW ( _reg + ( 92 ) )
001496 e0b0     +LDI R27 , HIGH ( _reg + ( 92 ) )
                 	__POINTW2MN _reg,92
001497 940e 1c84 	CALL SUBOPT_0x9C
                 ; 0000 0595         else if (a==0x0211)              d=reg[0][A_18];
001499 c024      	RJMP _0x335
                 _0x334:
00149a 81ac      	LDD  R26,Y+4
00149b 81bd      	LDD  R27,Y+4+1
00149c 31a1      	CPI  R26,LOW(0x211)
00149d e0e2      	LDI  R30,HIGH(0x211)
00149e 07be      	CPC  R27,R30
00149f f429      	BRNE _0x336
0014a0 940e 1975 	CALL SUBOPT_0x2E
0014a2 940e 1c7e 	CALL SUBOPT_0x9A
                 ; 0000 0596         else if (a==0x0212)              d=reg[0][A_19];
0014a4 c019      	RJMP _0x337
                 _0x336:
0014a5 81ac      	LDD  R26,Y+4
0014a6 81bd      	LDD  R27,Y+4+1
0014a7 31a2      	CPI  R26,LOW(0x212)
0014a8 e0e2      	LDI  R30,HIGH(0x212)
0014a9 07be      	CPC  R27,R30
0014aa f429      	BRNE _0x338
                +
0014ab e6a4     +LDI R26 , LOW ( _reg + ( 100 ) )
0014ac e0b0     +LDI R27 , HIGH ( _reg + ( 100 ) )
                 	__POINTW2MN _reg,100
0014ad 940e 1c84 	CALL SUBOPT_0x9C
                 ; 0000 0597         else if (a==0x0213)              d=reg[0][adres];
0014af c00e      	RJMP _0x339
                 _0x338:
0014b0 81ac      	LDD  R26,Y+4
0014b1 81bd      	LDD  R27,Y+4+1
0014b2 31a3      	CPI  R26,LOW(0x213)
0014b3 e0e2      	LDI  R30,HIGH(0x213)
0014b4 07be      	CPC  R27,R30
0014b5 f429      	BRNE _0x33A
                +
0014b6 e6a8     +LDI R26 , LOW ( _reg + ( 104 ) )
0014b7 e0b0     +LDI R27 , HIGH ( _reg + ( 104 ) )
                 	__POINTW2MN _reg,104
0014b8 940e 1c84 	CALL SUBOPT_0x9C
                 ; 0000 0598        // else if (a == 0x0214)
                 ; 0000 0599         else                             d=0;
0014ba c003      	RJMP _0x33B
                 _0x33A:
0014bb e0e0      	LDI  R30,LOW(0)
0014bc 940e 1f0a 	CALL __CLRD1S0
                 ; 0000 059A         return d;
                 _0x33B:
                 _0x339:
                 _0x337:
                 _0x335:
                 _0x333:
                 _0x331:
                 _0x32F:
                 _0x32D:
                 _0x32B:
                 _0x329:
                 _0x327:
                 _0x325:
                 _0x323:
                 _0x321:
                 _0x31F:
                 _0x31D:
                 _0x31B:
                 _0x319:
                 _0x317:
                 _0x315:
                 _0x313:
                 _0x311:
                 _0x30F:
                 _0x30D:
                 _0x30B:
                 _0x309:
                 _0x307:
                 _0x2FD:
                 _0x2FB:
                 _0x2F9:
0014be 940e 1c81 	CALL SUBOPT_0x9B
0014c0 c17c      	RJMP _0x20A0005
                 ; 0000 059B         }
                 ;void find_save_reg(unsigned int a,float b)
                 ; 0000 059D         {
                 _find_save_reg:
                 ; 0000 059E         if (a==0x0100)                   reg[0][Y_01]=b;
                 ;	a -> Y+4
                 ;	b -> Y+0
0014c1 81ac      	LDD  R26,Y+4
0014c2 81bd      	LDD  R27,Y+4+1
0014c3 30a0      	CPI  R26,LOW(0x100)
0014c4 e0e1      	LDI  R30,HIGH(0x100)
0014c5 07be      	CPC  R27,R30
0014c6 f419      	BRNE _0x33C
                +
0014c7 e0a4     +LDI R26 , LOW ( _reg + ( 4 ) )
0014c8 e0b0     +LDI R27 , HIGH ( _reg + ( 4 ) )
                 	__POINTW2MN _reg,4
0014c9 c0e0      	RJMP _0x3E6
                 ; 0000 059F         else if (a==0x0101)              reg[0][Y_02]=b;
                 _0x33C:
0014ca 81ac      	LDD  R26,Y+4
0014cb 81bd      	LDD  R27,Y+4+1
0014cc 30a1      	CPI  R26,LOW(0x101)
0014cd e0e1      	LDI  R30,HIGH(0x101)
0014ce 07be      	CPC  R27,R30
0014cf f419      	BRNE _0x33E
                +
0014d0 e0a8     +LDI R26 , LOW ( _reg + ( 8 ) )
0014d1 e0b0     +LDI R27 , HIGH ( _reg + ( 8 ) )
                 	__POINTW2MN _reg,8
0014d2 c0d7      	RJMP _0x3E6
                 ; 0000 05A0         else if (a==0x0102)              reg[0][Z_01]=b;
                 _0x33E:
0014d3 81ac      	LDD  R26,Y+4
0014d4 81bd      	LDD  R27,Y+4+1
0014d5 30a2      	CPI  R26,LOW(0x102)
0014d6 e0e1      	LDI  R30,HIGH(0x102)
0014d7 07be      	CPC  R27,R30
0014d8 f419      	BRNE _0x340
                +
0014d9 e0ac     +LDI R26 , LOW ( _reg + ( 12 ) )
0014da e0b0     +LDI R27 , HIGH ( _reg + ( 12 ) )
                 	__POINTW2MN _reg,12
0014db c0ce      	RJMP _0x3E6
                 ; 0000 05A1         else if (a==0x0103)              reg[0][Z_02]=b;
                 _0x340:
0014dc 81ac      	LDD  R26,Y+4
0014dd 81bd      	LDD  R27,Y+4+1
0014de 30a3      	CPI  R26,LOW(0x103)
0014df e0e1      	LDI  R30,HIGH(0x103)
0014e0 07be      	CPC  R27,R30
0014e1 f419      	BRNE _0x342
                +
0014e2 e1a0     +LDI R26 , LOW ( _reg + ( 16 ) )
0014e3 e0b0     +LDI R27 , HIGH ( _reg + ( 16 ) )
                 	__POINTW2MN _reg,16
0014e4 c0c5      	RJMP _0x3E6
                 ; 0000 05A2         else if (a==0x0104)              reg[0][P___]=b;
                 _0x342:
0014e5 81ac      	LDD  R26,Y+4
0014e6 81bd      	LDD  R27,Y+4+1
0014e7 30a4      	CPI  R26,LOW(0x104)
0014e8 e0e1      	LDI  R30,HIGH(0x104)
0014e9 07be      	CPC  R27,R30
0014ea f419      	BRNE _0x344
                +
0014eb e1a4     +LDI R26 , LOW ( _reg + ( 20 ) )
0014ec e0b0     +LDI R27 , HIGH ( _reg + ( 20 ) )
                 	__POINTW2MN _reg,20
0014ed c0bc      	RJMP _0x3E6
                 ; 0000 05A3         else if (a==0x0105)              reg[0][C___]=b;
                 _0x344:
0014ee 81ac      	LDD  R26,Y+4
0014ef 81bd      	LDD  R27,Y+4+1
0014f0 30a5      	CPI  R26,LOW(0x105)
0014f1 e0e1      	LDI  R30,HIGH(0x105)
0014f2 07be      	CPC  R27,R30
0014f3 f419      	BRNE _0x346
                +
0014f4 e1a8     +LDI R26 , LOW ( _reg + ( 24 ) )
0014f5 e0b0     +LDI R27 , HIGH ( _reg + ( 24 ) )
                 	__POINTW2MN _reg,24
0014f6 c0b3      	RJMP _0x3E6
                 ; 0000 05A4 
                 ; 0000 05A5         else if (a==0x0200)              reg[0][A_01]=b;
                 _0x346:
0014f7 81ac      	LDD  R26,Y+4
0014f8 81bd      	LDD  R27,Y+4+1
0014f9 30a0      	CPI  R26,LOW(0x200)
0014fa e0e2      	LDI  R30,HIGH(0x200)
0014fb 07be      	CPC  R27,R30
0014fc f419      	BRNE _0x348
                +
0014fd e1ac     +LDI R26 , LOW ( _reg + ( 28 ) )
0014fe e0b0     +LDI R27 , HIGH ( _reg + ( 28 ) )
                 	__POINTW2MN _reg,28
0014ff c0aa      	RJMP _0x3E6
                 ; 0000 05A6         else if (a==0x0201)              reg[0][A_02]=b;
                 _0x348:
001500 81ac      	LDD  R26,Y+4
001501 81bd      	LDD  R27,Y+4+1
001502 30a1      	CPI  R26,LOW(0x201)
001503 e0e2      	LDI  R30,HIGH(0x201)
001504 07be      	CPC  R27,R30
001505 f419      	BRNE _0x34A
                +
001506 e2a0     +LDI R26 , LOW ( _reg + ( 32 ) )
001507 e0b0     +LDI R27 , HIGH ( _reg + ( 32 ) )
                 	__POINTW2MN _reg,32
001508 c0a1      	RJMP _0x3E6
                 ; 0000 05A7         else if (a==0x0202)              reg[0][A_03]=b;
                 _0x34A:
001509 81ac      	LDD  R26,Y+4
00150a 81bd      	LDD  R27,Y+4+1
00150b 30a2      	CPI  R26,LOW(0x202)
00150c e0e2      	LDI  R30,HIGH(0x202)
00150d 07be      	CPC  R27,R30
00150e f419      	BRNE _0x34C
                +
00150f e2a4     +LDI R26 , LOW ( _reg + ( 36 ) )
001510 e0b0     +LDI R27 , HIGH ( _reg + ( 36 ) )
                 	__POINTW2MN _reg,36
001511 c098      	RJMP _0x3E6
                 ; 0000 05A8         else if (a==0x0203)              reg[0][A_04]=b;
                 _0x34C:
001512 81ac      	LDD  R26,Y+4
001513 81bd      	LDD  R27,Y+4+1
001514 30a3      	CPI  R26,LOW(0x203)
001515 e0e2      	LDI  R30,HIGH(0x203)
001516 07be      	CPC  R27,R30
001517 f419      	BRNE _0x34E
                +
001518 e2a8     +LDI R26 , LOW ( _reg + ( 40 ) )
001519 e0b0     +LDI R27 , HIGH ( _reg + ( 40 ) )
                 	__POINTW2MN _reg,40
00151a c08f      	RJMP _0x3E6
                 ; 0000 05A9         else if (a==0x0204)              reg[0][A_05]=b;
                 _0x34E:
00151b 81ac      	LDD  R26,Y+4
00151c 81bd      	LDD  R27,Y+4+1
00151d 30a4      	CPI  R26,LOW(0x204)
00151e e0e2      	LDI  R30,HIGH(0x204)
00151f 07be      	CPC  R27,R30
001520 f419      	BRNE _0x350
                +
001521 e2ac     +LDI R26 , LOW ( _reg + ( 44 ) )
001522 e0b0     +LDI R27 , HIGH ( _reg + ( 44 ) )
                 	__POINTW2MN _reg,44
001523 c086      	RJMP _0x3E6
                 ; 0000 05AA         else if (a==0x0205)              reg[0][A_06]=b;
                 _0x350:
001524 81ac      	LDD  R26,Y+4
001525 81bd      	LDD  R27,Y+4+1
001526 30a5      	CPI  R26,LOW(0x205)
001527 e0e2      	LDI  R30,HIGH(0x205)
001528 07be      	CPC  R27,R30
001529 f419      	BRNE _0x352
                +
00152a e3a0     +LDI R26 , LOW ( _reg + ( 48 ) )
00152b e0b0     +LDI R27 , HIGH ( _reg + ( 48 ) )
                 	__POINTW2MN _reg,48
00152c c07d      	RJMP _0x3E6
                 ; 0000 05AB         else if (a==0x0206)              reg[0][A_07]=b;
                 _0x352:
00152d 81ac      	LDD  R26,Y+4
00152e 81bd      	LDD  R27,Y+4+1
00152f 30a6      	CPI  R26,LOW(0x206)
001530 e0e2      	LDI  R30,HIGH(0x206)
001531 07be      	CPC  R27,R30
001532 f419      	BRNE _0x354
                +
001533 e3a4     +LDI R26 , LOW ( _reg + ( 52 ) )
001534 e0b0     +LDI R27 , HIGH ( _reg + ( 52 ) )
                 	__POINTW2MN _reg,52
001535 c074      	RJMP _0x3E6
                 ; 0000 05AC         else if (a==0x0207)              reg[0][A_08]=b;
                 _0x354:
001536 81ac      	LDD  R26,Y+4
001537 81bd      	LDD  R27,Y+4+1
001538 30a7      	CPI  R26,LOW(0x207)
001539 e0e2      	LDI  R30,HIGH(0x207)
00153a 07be      	CPC  R27,R30
00153b f419      	BRNE _0x356
                +
00153c e3a8     +LDI R26 , LOW ( _reg + ( 56 ) )
00153d e0b0     +LDI R27 , HIGH ( _reg + ( 56 ) )
                 	__POINTW2MN _reg,56
00153e c06b      	RJMP _0x3E6
                 ; 0000 05AD         else if (a==0x0208)              reg[0][A_09]=b;
                 _0x356:
00153f 81ac      	LDD  R26,Y+4
001540 81bd      	LDD  R27,Y+4+1
001541 30a8      	CPI  R26,LOW(0x208)
001542 e0e2      	LDI  R30,HIGH(0x208)
001543 07be      	CPC  R27,R30
001544 f419      	BRNE _0x358
                +
001545 e3ac     +LDI R26 , LOW ( _reg + ( 60 ) )
001546 e0b0     +LDI R27 , HIGH ( _reg + ( 60 ) )
                 	__POINTW2MN _reg,60
001547 c062      	RJMP _0x3E6
                 ; 0000 05AE         else if (a==0x0209)              reg[0][A_10]=b;
                 _0x358:
001548 81ac      	LDD  R26,Y+4
001549 81bd      	LDD  R27,Y+4+1
00154a 30a9      	CPI  R26,LOW(0x209)
00154b e0e2      	LDI  R30,HIGH(0x209)
00154c 07be      	CPC  R27,R30
00154d f419      	BRNE _0x35A
                +
00154e e4a0     +LDI R26 , LOW ( _reg + ( 64 ) )
00154f e0b0     +LDI R27 , HIGH ( _reg + ( 64 ) )
                 	__POINTW2MN _reg,64
001550 c059      	RJMP _0x3E6
                 ; 0000 05AF         else if (a==0x020A)              reg[0][A_11]=b;
                 _0x35A:
001551 81ac      	LDD  R26,Y+4
001552 81bd      	LDD  R27,Y+4+1
001553 30aa      	CPI  R26,LOW(0x20A)
001554 e0e2      	LDI  R30,HIGH(0x20A)
001555 07be      	CPC  R27,R30
001556 f419      	BRNE _0x35C
                +
001557 e4a4     +LDI R26 , LOW ( _reg + ( 68 ) )
001558 e0b0     +LDI R27 , HIGH ( _reg + ( 68 ) )
                 	__POINTW2MN _reg,68
001559 c050      	RJMP _0x3E6
                 ; 0000 05B0         else if (a==0x020B)              reg[0][A_12]=b;
                 _0x35C:
00155a 81ac      	LDD  R26,Y+4
00155b 81bd      	LDD  R27,Y+4+1
00155c 30ab      	CPI  R26,LOW(0x20B)
00155d e0e2      	LDI  R30,HIGH(0x20B)
00155e 07be      	CPC  R27,R30
00155f f419      	BRNE _0x35E
                +
001560 e4a8     +LDI R26 , LOW ( _reg + ( 72 ) )
001561 e0b0     +LDI R27 , HIGH ( _reg + ( 72 ) )
                 	__POINTW2MN _reg,72
001562 c047      	RJMP _0x3E6
                 ; 0000 05B1         else if (a==0x020C)              reg[0][A_13]=b;
                 _0x35E:
001563 81ac      	LDD  R26,Y+4
001564 81bd      	LDD  R27,Y+4+1
001565 30ac      	CPI  R26,LOW(0x20C)
001566 e0e2      	LDI  R30,HIGH(0x20C)
001567 07be      	CPC  R27,R30
001568 f419      	BRNE _0x360
                +
001569 e4ac     +LDI R26 , LOW ( _reg + ( 76 ) )
00156a e0b0     +LDI R27 , HIGH ( _reg + ( 76 ) )
                 	__POINTW2MN _reg,76
00156b c03e      	RJMP _0x3E6
                 ; 0000 05B2         else if (a==0x020D)              reg[0][A_14]=b;
                 _0x360:
00156c 81ac      	LDD  R26,Y+4
00156d 81bd      	LDD  R27,Y+4+1
00156e 30ad      	CPI  R26,LOW(0x20D)
00156f e0e2      	LDI  R30,HIGH(0x20D)
001570 07be      	CPC  R27,R30
001571 f419      	BRNE _0x362
                +
001572 e5a0     +LDI R26 , LOW ( _reg + ( 80 ) )
001573 e0b0     +LDI R27 , HIGH ( _reg + ( 80 ) )
                 	__POINTW2MN _reg,80
001574 c035      	RJMP _0x3E6
                 ; 0000 05B3         else if (a==0x020E)              reg[0][A_15]=b;
                 _0x362:
001575 81ac      	LDD  R26,Y+4
001576 81bd      	LDD  R27,Y+4+1
001577 30ae      	CPI  R26,LOW(0x20E)
001578 e0e2      	LDI  R30,HIGH(0x20E)
001579 07be      	CPC  R27,R30
00157a f419      	BRNE _0x364
                +
00157b e5a4     +LDI R26 , LOW ( _reg + ( 84 ) )
00157c e0b0     +LDI R27 , HIGH ( _reg + ( 84 ) )
                 	__POINTW2MN _reg,84
00157d c02c      	RJMP _0x3E6
                 ; 0000 05B4         else if (a==0x020F)              reg[0][A_16]=b;
                 _0x364:
00157e 81ac      	LDD  R26,Y+4
00157f 81bd      	LDD  R27,Y+4+1
001580 30af      	CPI  R26,LOW(0x20F)
001581 e0e2      	LDI  R30,HIGH(0x20F)
001582 07be      	CPC  R27,R30
001583 f419      	BRNE _0x366
                +
001584 e5a8     +LDI R26 , LOW ( _reg + ( 88 ) )
001585 e0b0     +LDI R27 , HIGH ( _reg + ( 88 ) )
                 	__POINTW2MN _reg,88
001586 c023      	RJMP _0x3E6
                 ; 0000 05B5         else if (a==0x0210)              reg[0][A_17]=b;
                 _0x366:
001587 81ac      	LDD  R26,Y+4
001588 81bd      	LDD  R27,Y+4+1
001589 31a0      	CPI  R26,LOW(0x210)
00158a e0e2      	LDI  R30,HIGH(0x210)
00158b 07be      	CPC  R27,R30
00158c f419      	BRNE _0x368
                +
00158d e5ac     +LDI R26 , LOW ( _reg + ( 92 ) )
00158e e0b0     +LDI R27 , HIGH ( _reg + ( 92 ) )
                 	__POINTW2MN _reg,92
00158f c01a      	RJMP _0x3E6
                 ; 0000 05B6         else if (a==0x0211)              reg[0][A_18]=b;
                 _0x368:
001590 81ac      	LDD  R26,Y+4
001591 81bd      	LDD  R27,Y+4+1
001592 31a1      	CPI  R26,LOW(0x211)
001593 e0e2      	LDI  R30,HIGH(0x211)
001594 07be      	CPC  R27,R30
001595 f419      	BRNE _0x36A
                +
001596 e6a0     +LDI R26 , LOW ( _reg + ( 96 ) )
001597 e0b0     +LDI R27 , HIGH ( _reg + ( 96 ) )
                 	__POINTW2MN _reg,96
001598 c011      	RJMP _0x3E6
                 ; 0000 05B7         else if (a==0x0212)              reg[0][A_19]=b;
                 _0x36A:
001599 81ac      	LDD  R26,Y+4
00159a 81bd      	LDD  R27,Y+4+1
00159b 31a2      	CPI  R26,LOW(0x212)
00159c e0e2      	LDI  R30,HIGH(0x212)
00159d 07be      	CPC  R27,R30
00159e f419      	BRNE _0x36C
                +
00159f e6a4     +LDI R26 , LOW ( _reg + ( 100 ) )
0015a0 e0b0     +LDI R27 , HIGH ( _reg + ( 100 ) )
                 	__POINTW2MN _reg,100
0015a1 c008      	RJMP _0x3E6
                 ; 0000 05B8         else if (a==0x0213)              reg[0][adres]=b;
                 _0x36C:
0015a2 81ac      	LDD  R26,Y+4
0015a3 81bd      	LDD  R27,Y+4+1
0015a4 31a3      	CPI  R26,LOW(0x213)
0015a5 e0e2      	LDI  R30,HIGH(0x213)
0015a6 07be      	CPC  R27,R30
0015a7 f431      	BRNE _0x36E
                +
0015a8 e6a8     +LDI R26 , LOW ( _reg + ( 104 ) )
0015a9 e0b0     +LDI R27 , HIGH ( _reg + ( 104 ) )
                 	__POINTW2MN _reg,104
                 _0x3E6:
0015aa 940e 1f00 	CALL __GETD1S0
0015ac 940e 1f3a 	CALL __EEPROMWRD
                 ; 0000 05B9         }
                 _0x36E:
0015ae c08e      	RJMP _0x20A0005
                 ;//--------------------------------------//
                 ;void response_m_aa1()                   //
                 ; 0000 05BC 	{mov_buf_mod(rx_buffer[0]);     //
                 _response_m_aa1:
0015af 940e 1c87 	CALL SUBOPT_0x9D
                 ; 0000 05BD 	mov_buf_mod(rx_buffer[1]);      //
                 ; 0000 05BE 	mov_buf_mod(1);                 //
0015b1 e0e1      	LDI  R30,LOW(1)
0015b2 93ea      	ST   -Y,R30
0015b3 d10a      	RCALL _mov_buf_mod
                 ; 0000 05BF         while (rx_buffer[5]>0)          //
                 _0x36F:
                +
0015b4 91a0 0165+LDS R26 , _rx_buffer + ( 5 )
                 	__GETB2MN _rx_buffer,5
0015b6 30a1      	CPI  R26,LOW(0x1)
0015b7 f410      	BRSH PC+3
0015b8 940c 15fa 	JMP _0x371
                 ; 0000 05C0                 {if (rx_buffer[3]==0)   //
                +
0015ba 91e0 0163+LDS R30 , _rx_buffer + ( 3 )
                 	__GETB1MN _rx_buffer,3
0015bc 30e0      	CPI  R30,0
0015bd f439      	BRNE _0x372
                 ; 0000 05C1                         {if (avaria==1) i=1;
0015be fe43      	SBRS R4,3
0015bf c002      	RJMP _0x373
0015c0 e0e1      	LDI  R30,LOW(1)
0015c1 c001      	RJMP _0x3E7
                 ; 0000 05C2                         else i=0;}      //
                 _0x373:
0015c2 e0e0      	LDI  R30,LOW(0)
                 _0x3E7:
0015c3 93e0 0200 	STS  _i,R30
                 ; 0000 05C3                 if (rx_buffer[3]==1)    //
                 _0x372:
                +
0015c5 91a0 0163+LDS R26 , _rx_buffer + ( 3 )
                 	__GETB2MN _rx_buffer,3
0015c7 30a1      	CPI  R26,LOW(0x1)
0015c8 f451      	BRNE _0x375
                 ; 0000 05C4                         {if (alarm1==0) i=i+2;
0015c9 fc44      	SBRC R4,4
0015ca c004      	RJMP _0x376
0015cb 91e0 0200 	LDS  R30,_i
0015cd 5fee      	SUBI R30,-LOW(2)
0015ce c002      	RJMP _0x3E8
                 ; 0000 05C5         	        else i=i;}      //
                 _0x376:
0015cf 91e0 0200 	LDS  R30,_i
                 _0x3E8:
0015d1 93e0 0200 	STS  _i,R30
                 ; 0000 05C6                 if (rx_buffer[3]==2)    //
                 _0x375:
                +
0015d3 91a0 0163+LDS R26 , _rx_buffer + ( 3 )
                 	__GETB2MN _rx_buffer,3
0015d5 30a2      	CPI  R26,LOW(0x2)
0015d6 f451      	BRNE _0x378
                 ; 0000 05C7                         {if (alarm2==0) i=i+4;
0015d7 fc45      	SBRC R4,5
0015d8 c004      	RJMP _0x379
0015d9 91e0 0200 	LDS  R30,_i
0015db 5fec      	SUBI R30,-LOW(4)
0015dc c002      	RJMP _0x3E9
                 ; 0000 05C8                         else i=i;}      //
                 _0x379:
0015dd 91e0 0200 	LDS  R30,_i
                 _0x3E9:
0015df 93e0 0200 	STS  _i,R30
                 ; 0000 05C9                 if (rx_buffer[3]==3)    //
                 _0x378:
                +
0015e1 91a0 0163+LDS R26 , _rx_buffer + ( 3 )
                 	__GETB2MN _rx_buffer,3
0015e3 30a3      	CPI  R26,LOW(0x3)
0015e4 f451      	BRNE _0x37B
                 ; 0000 05CA                         {if (avaria==0) i=i+4;
0015e5 fc43      	SBRC R4,3
0015e6 c004      	RJMP _0x37C
0015e7 91e0 0200 	LDS  R30,_i
0015e9 5fec      	SUBI R30,-LOW(4)
0015ea c002      	RJMP _0x3EA
                 ; 0000 05CB                         else i=i;}      //
                 _0x37C:
0015eb 91e0 0200 	LDS  R30,_i
                 _0x3EA:
0015ed 93e0 0200 	STS  _i,R30
                 ; 0000 05CC                	rx_buffer[5]--;         //
                 _0x37B:
                +
0015ef 91e0 0165+LDS R30 , _rx_buffer + ( 5 )
                 	__GETB1MN _rx_buffer,5
0015f1 50e1      	SUBI R30,LOW(1)
                +
0015f2 93e0 0165+STS _rx_buffer + ( 5 ) , R30
                 	__PUTB1MN _rx_buffer,5
                 ; 0000 05CD                	rx_buffer[3]++;}        //
                +
0015f4 91e0 0163+LDS R30 , _rx_buffer + ( 3 )
                 	__GETB1MN _rx_buffer,3
0015f6 5fef      	SUBI R30,-LOW(1)
                +
0015f7 93e0 0163+STS _rx_buffer + ( 3 ) , R30
                 	__PUTB1MN _rx_buffer,3
0015f9 cfba      	RJMP _0x36F
                 _0x371:
                 ; 0000 05CE         mov_buf_mod(i);crc_end();}      //
0015fa 91e0 0200 	LDS  R30,_i
0015fc 940e 1c91 	CALL SUBOPT_0x9E
0015fe 9508      	RET
                 ;//--------------------------------------//
                 ;void response_m_aa46()                  //
                 ; 0000 05D1 	{float temp;                    //
                 _response_m_aa46:
                 ; 0000 05D2         int adr;                        //
                 ; 0000 05D3         *((unsigned char *)(&temp)+0)=rx_buffer[4];
0015ff 9724      	SBIW R28,4
001600 931a      	ST   -Y,R17
001601 930a      	ST   -Y,R16
                 ;	temp -> Y+2
                 ;	adr -> R16,R17
                +
001602 91e0 0164+LDS R30 , _rx_buffer + ( 4 )
                 	__GETB1MN _rx_buffer,4
001604 83ea      	STD  Y+2,R30
                 ; 0000 05D4         *((unsigned char *)(&temp)+1)=rx_buffer[5];
                +
001605 91e0 0165+LDS R30 , _rx_buffer + ( 5 )
                 	__GETB1MN _rx_buffer,5
001607 83eb      	STD  Y+3,R30
                 ; 0000 05D5         *((unsigned char *)(&temp)+2)=rx_buffer[6];
                +
001608 91e0 0166+LDS R30 , _rx_buffer + ( 6 )
                 	__GETB1MN _rx_buffer,6
00160a 83ec      	STD  Y+4,R30
                 ; 0000 05D6         *((unsigned char *)(&temp)+3)=rx_buffer[7];
                +
00160b 91e0 0167+LDS R30 , _rx_buffer + ( 7 )
                 	__GETB1MN _rx_buffer,7
00160d 83ed      	STD  Y+5,R30
                 ; 0000 05D7 
                 ; 0000 05D8        	adr=rx_buffer[2];               //
                +
00160e 9100 0162+LDS R16 , _rx_buffer + ( 2 )
                 	__GETBRMN 16,_rx_buffer,2
001610 2711      	CLR  R17
                 ; 0000 05D9        	adr=adr<<8;                     //
001611 2f10      	MOV  R17,R16
001612 2700      	CLR  R16
                 ; 0000 05DA        	adr=adr+rx_buffer[3];           //
                +
001613 91e0 0163+LDS R30 , _rx_buffer + ( 3 )
                 	__GETB1MN _rx_buffer,3
001615 e0f0      	LDI  R31,0
                +
001616 0f0e     +ADD R16 , R30
001617 1f1f     +ADC R17 , R31
                 	__ADDWRR 16,17,30,31
                 ; 0000 05DB         find_save_reg(adr,temp);        //
001618 931a      	ST   -Y,R17
001619 930a      	ST   -Y,R16
                +
00161a 81ec     +LDD R30 , Y + 4
00161b 81fd     +LDD R31 , Y + 4 + 1
00161c 816e     +LDD R22 , Y + 4 + 2
00161d 817f     +LDD R23 , Y + 4 + 3
                 	__GETD1S 4
00161e 940e 1f0f 	CALL __PUTPARD1
001620 dea0      	RCALL _find_save_reg
                 ; 0000 05DC 	mov_buf_mod(rx_buffer[0]);      //
001621 940e 1c87 	CALL SUBOPT_0x9D
                 ; 0000 05DD 	mov_buf_mod(rx_buffer[1]);      //
                 ; 0000 05DE 	mov_buf_mod(rx_buffer[2]);      //
                +
001623 91e0 0162+LDS R30 , _rx_buffer + ( 2 )
                 	__GETB1MN _rx_buffer,2
001625 93ea      	ST   -Y,R30
001626 d097      	RCALL _mov_buf_mod
                 ; 0000 05DF 	mov_buf_mod(rx_buffer[3]);      //
                +
001627 91e0 0163+LDS R30 , _rx_buffer + ( 3 )
                 	__GETB1MN _rx_buffer,3
001629 93ea      	ST   -Y,R30
00162a d093      	RCALL _mov_buf_mod
                 ; 0000 05E0 	mov_buf_mod(rx_buffer[4]);      //
                +
00162b 91e0 0164+LDS R30 , _rx_buffer + ( 4 )
                 	__GETB1MN _rx_buffer,4
00162d 93ea      	ST   -Y,R30
00162e d08f      	RCALL _mov_buf_mod
                 ; 0000 05E1 	mov_buf_mod(rx_buffer[5]);      //
                +
00162f 91e0 0165+LDS R30 , _rx_buffer + ( 5 )
                 	__GETB1MN _rx_buffer,5
001631 93ea      	ST   -Y,R30
001632 d08b      	RCALL _mov_buf_mod
                 ; 0000 05E2 	mov_buf_mod(rx_buffer[6]);      //
                +
001633 91e0 0166+LDS R30 , _rx_buffer + ( 6 )
                 	__GETB1MN _rx_buffer,6
001635 93ea      	ST   -Y,R30
001636 d087      	RCALL _mov_buf_mod
                 ; 0000 05E3 	mov_buf_mod(rx_buffer[7]);      //
                +
001637 91e0 0167+LDS R30 , _rx_buffer + ( 7 )
                 	__GETB1MN _rx_buffer,7
001639 940e 1c91 	CALL SUBOPT_0x9E
                 ; 0000 05E4         crc_end();}                     //
00163b 8119      	LDD  R17,Y+1
00163c 8108      	LDD  R16,Y+0
                 _0x20A0005:
00163d 9626      	ADIW R28,6
00163e 9508      	RET
                 ;//--------------------------------------//
                 ;void response_m_aa48()                  //
                 ; 0000 05E7 	{char a,i;                      //
                 _response_m_aa48:
                 ; 0000 05E8         float temp;                     //
                 ; 0000 05E9         int adr;                        //
                 ; 0000 05EA         i=rx_buffer[5]*2;               //
00163f 9724      	SBIW R28,4
001640 940e 1f65 	CALL __SAVELOCR4
                 ;	a -> R17
                 ;	i -> R16
                 ;	temp -> Y+4
                 ;	adr -> R18,R19
                +
001642 91e0 0165+LDS R30 , _rx_buffer + ( 5 )
                 	__GETB1MN _rx_buffer,5
001644 0fee      	LSL  R30
001645 2f0e      	MOV  R16,R30
                 ; 0000 05EB         a=0;                            //
001646 e010      	LDI  R17,LOW(0)
                 ; 0000 05EC        	mov_buf_mod(rx_buffer[0]);      //
001647 940e 1c87 	CALL SUBOPT_0x9D
                 ; 0000 05ED         mov_buf_mod(rx_buffer[1]);      //
                 ; 0000 05EE        	mov_buf_mod(rx_buffer[5]*4);    //
                +
001649 91e0 0165+LDS R30 , _rx_buffer + ( 5 )
                 	__GETB1MN _rx_buffer,5
00164b 0fee      	LSL  R30
00164c 0fee      	LSL  R30
00164d 93ea      	ST   -Y,R30
00164e d06f      	RCALL _mov_buf_mod
                 ; 0000 05EF        	adr=rx_buffer[2];               //
                +
00164f 9120 0162+LDS R18 , _rx_buffer + ( 2 )
                 	__GETBRMN 18,_rx_buffer,2
001651 2733      	CLR  R19
                 ; 0000 05F0        	adr=adr<<8;                     //
001652 2f32      	MOV  R19,R18
001653 2722      	CLR  R18
                 ; 0000 05F1        	adr=adr+rx_buffer[3];           //
                +
001654 91e0 0163+LDS R30 , _rx_buffer + ( 3 )
                 	__GETB1MN _rx_buffer,3
001656 e0f0      	LDI  R31,0
                +
001657 0f2e     +ADD R18 , R30
001658 1f3f     +ADC R19 , R31
                 	__ADDWRR 18,19,30,31
                 ; 0000 05F2         temp=find_reg(adr);             //
001659 933a      	ST   -Y,R19
00165a 932a      	ST   -Y,R18
00165b dce3      	RCALL _find_reg
                +
00165c 83ec     +STD Y + 4 , R30
00165d 83fd     +STD Y + 4 + 1 , R31
00165e 836e     +STD Y + 4 + 2 , R22
00165f 837f     +STD Y + 4 + 3 , R23
                 	__PUTD1S 4
                 ; 0000 05F3         while (i>0)                     //
                 _0x37E:
001660 3001      	CPI  R16,1
001661 f060      	BRLO _0x380
                 ; 0000 05F4        	        {mov_buf_mod(*((unsigned char *)(&temp)+0+a));
001662 01de      	MOVW R26,R28
001663 9614      	ADIW R26,4
001664 940e 1c96 	CALL SUBOPT_0x9F
                 ; 0000 05F5                 mov_buf_mod(*((unsigned char *)(&temp)+1+a));
001666 01de      	MOVW R26,R28
001667 9615      	ADIW R26,5
001668 940e 1c96 	CALL SUBOPT_0x9F
                 ; 0000 05F6        	        i--;a++;a++;}           //
00166a 5001      	SUBI R16,1
00166b 5f1f      	SUBI R17,-1
00166c 5f1f      	SUBI R17,-1
00166d cff2      	RJMP _0x37E
                 _0x380:
                 ; 0000 05F7 	crc_end();}                     //
00166e d065      	RCALL _crc_end
00166f 940e 1f6a 	CALL __LOADLOCR4
001671 9628      	ADIW R28,8
001672 9508      	RET
                 ;//--------------------------------------//
                 ;void response_m_err(char a)             //
                 ; 0000 05FA         {mov_buf_mod(rx_buffer[0]);     //
                 _response_m_err:
                 ;	a -> Y+0
001673 91e0 0160 	LDS  R30,_rx_buffer
001675 93ea      	ST   -Y,R30
001676 d047      	RCALL _mov_buf_mod
                 ; 0000 05FB 	mov_buf_mod(rx_buffer[1]|128);  //
                +
001677 91e0 0161+LDS R30 , _rx_buffer + ( 1 )
                 	__GETB1MN _rx_buffer,1
001679 68e0      	ORI  R30,0x80
00167a 93ea      	ST   -Y,R30
00167b d042      	RCALL _mov_buf_mod
                 ; 0000 05FC 	mov_buf_mod(a);                 //
00167c 81e8      	LD   R30,Y
00167d 940e 1c91 	CALL SUBOPT_0x9E
                 ; 0000 05FD         crc_end();}                     //
00167f c052      	RJMP _0x20A0004
                 ;//--------------------------------------//
                 ;void check_add_cr()                     //
                 ; 0000 0600 	{char i;                        //
                 _check_add_cr:
                 ; 0000 0601 	error=0;crc=0xFFFF;
001680 931a      	ST   -Y,R17
                 ;	i -> R17
001681 e0e0      	LDI  R30,LOW(0)
001682 93e0 022d 	STS  _error,R30
001684 940e 191e 	CALL SUBOPT_0x26
                 ; 0000 0602        	i=(unsigned char)reg[0][adres];  //
                +
001686 e6a8     +LDI R26 , LOW ( _reg + ( 104 ) )
001687 e0b0     +LDI R27 , HIGH ( _reg + ( 104 ) )
                 	__POINTW2MN _reg,104
001688 940e 1f26 	CALL __EEPROMRDD
00168a 940e 1d13 	CALL __CFD1U
00168c 2f1e      	MOV  R17,R30
                 ; 0000 0603 	if (rx_buffer[0]!=i) error=5;   //
00168d 91a0 0160 	LDS  R26,_rx_buffer
00168f 171a      	CP   R17,R26
001690 f019      	BREQ _0x381
001691 e0e5      	LDI  R30,LOW(5)
001692 93e0 022d 	STS  _error,R30
                 ; 0000 0604 	i=0;                            //
                 _0x381:
001694 e010      	LDI  R17,LOW(0)
                 ; 0000 0605 	while (i<(rx_wr_index-2)){crc_rtu(rx_buffer[i]);i++;}
                 _0x382:
001695 2deb      	MOV  R30,R11
001696 50e2      	SUBI R30,LOW(2)
001697 171e      	CP   R17,R30
001698 f440      	BRSH _0x384
001699 2fe1      	MOV  R30,R17
00169a 940e 1829 	CALL SUBOPT_0x0
00169c 81e0      	LD   R30,Z
00169d 93ea      	ST   -Y,R30
00169e d047      	RCALL _crc_rtu
00169f 5f1f      	SUBI R17,-1
0016a0 cff4      	RJMP _0x382
                 _0x384:
                 ; 0000 0606 	i=crc>>8;                       //
0016a1 940e 1889 	CALL SUBOPT_0x10
0016a3 940e 1e9f 	CALL __ASRW8
0016a5 2f1e      	MOV  R17,R30
                 ; 0000 0607 	if ((rx_buffer[rx_wr_index-1])!=i) error=2;
0016a6 2deb      	MOV  R30,R11
0016a7 50e1      	SUBI R30,LOW(1)
0016a8 940e 1829 	CALL SUBOPT_0x0
0016aa 81a0      	LD   R26,Z
0016ab 171a      	CP   R17,R26
0016ac f019      	BREQ _0x385
0016ad e0e2      	LDI  R30,LOW(2)
0016ae 93e0 022d 	STS  _error,R30
                 ; 0000 0608 	i=crc;                          //
                 _0x385:
0016b0 9110 01f7 	LDS  R17,_crc
                 ; 0000 0609 	if ((rx_buffer[rx_wr_index-2])!=i) error=3;
0016b2 2deb      	MOV  R30,R11
0016b3 50e2      	SUBI R30,LOW(2)
0016b4 940e 1829 	CALL SUBOPT_0x0
0016b6 81a0      	LD   R26,Z
0016b7 171a      	CP   R17,R26
0016b8 f019      	BREQ _0x386
0016b9 e0e3      	LDI  R30,LOW(3)
0016ba 93e0 022d 	STS  _error,R30
                 ; 0000 060A 
                 ; 0000 060B 	}                               //
                 _0x386:
0016bc 9119      	LD   R17,Y+
0016bd 9508      	RET
                 ;//--------------------------------------//
                 ;void mov_buf_mod(char a){crc_rtu(a);mov_buf(a);}
                 ; 0000 060D void mov_buf_mod(char a){crc_rtu(a);mov_buf(a);}
                 _mov_buf_mod:
                 ;	a -> Y+0
0016be 81e8      	LD   R30,Y
0016bf 93ea      	ST   -Y,R30
0016c0 d025      	RCALL _crc_rtu
0016c1 81e8      	LD   R30,Y
0016c2 93ea      	ST   -Y,R30
0016c3 d001      	RCALL _mov_buf
0016c4 c00d      	RJMP _0x20A0004
                 ;//--------------------------------------//
                 ;void mov_buf(char a)                    //
                 ; 0000 0610         {#asm("cli");                   //
                 _mov_buf:
                 ;	a -> Y+0
0016c5 94f8      	cli
                 ; 0000 0611         tx_buffer[tx_buffer_end]=a;     //
0016c6 2dec      	MOV  R30,R12
0016c7 e0f0      	LDI  R31,0
0016c8 56e0      	SUBI R30,LOW(-_tx_buffer)
0016c9 4ffe      	SBCI R31,HIGH(-_tx_buffer)
0016ca 81a8      	LD   R26,Y
0016cb 83a0      	STD  Z+0,R26
                 ; 0000 0612         if (++tx_buffer_end==TX_BUFFER_SIZE) tx_buffer_end=0;
0016cc 94c3      	INC  R12
0016cd e4e0      	LDI  R30,LOW(64)
0016ce 15ec      	CP   R30,R12
0016cf f409      	BRNE _0x387
0016d0 24cc      	CLR  R12
                 ; 0000 0613         #asm("sei");}                   //
                 _0x387:
0016d1 9478      	sei
                 _0x20A0004:
0016d2 9621      	ADIW R28,1
0016d3 9508      	RET
                 ;//--------------------------------------//
                 ;void crc_end()                          //
                 ; 0000 0616         {mov_buf(crc);mov_buf(crc>>8);rx_tx=1;
                 _crc_end:
0016d4 91e0 01f7 	LDS  R30,_crc
0016d6 93ea      	ST   -Y,R30
0016d7 dfed      	RCALL _mov_buf
0016d8 940e 1889 	CALL SUBOPT_0x10
0016da 940e 1e9f 	CALL __ASRW8
0016dc 93ea      	ST   -Y,R30
0016dd dfe7      	RCALL _mov_buf
0016de 9a92      	SBI  0x12,2
                 ; 0000 0617         UDR=tx_buffer[tx_buffer_begin]; //
0016df 940e 182d 	CALL SUBOPT_0x1
                 ; 0000 0618         ti_en=1;crc=0xffff;}		//
0016e1 9468      	SET
0016e2 f821      	BLD  R2,1
0016e3 940e 191e 	CALL SUBOPT_0x26
0016e5 9508      	RET
                 ;//--------------------------------------//
                 ;void crc_rtu(char a)			//
                 ; 0000 061B 	{
                 _crc_rtu:
                 ; 0000 061C         char n;                         //
                 ; 0000 061D 	crc = a^crc;			//
0016e6 931a      	ST   -Y,R17
                 ;	a -> Y+1
                 ;	n -> R17
0016e7 940e 1889 	CALL SUBOPT_0x10
0016e9 81a9      	LDD  R26,Y+1
0016ea 27ea      	EOR  R30,R26
0016eb 940e 1c9d 	CALL SUBOPT_0xA0
                 ; 0000 061E 	for(n=0; n<8; n++)		//
0016ed e010      	LDI  R17,LOW(0)
                 _0x38B:
0016ee 3018      	CPI  R17,8
0016ef f498      	BRSH _0x38C
                 ; 0000 061F 		{
                 ; 0000 0620                 if(crc & 0x0001 == 1)  //
0016f0 91e0 01f7 	LDS  R30,_crc
0016f2 70e1      	ANDI R30,LOW(0x1)
0016f3 f059      	BREQ _0x38D
                 ; 0000 0621 		        {
                 ; 0000 0622                         crc = crc>>1;	//
0016f4 940e 1ca2 	CALL SUBOPT_0xA1
                 ; 0000 0623 			crc=crc&0x7fff;	//
                 ; 0000 0624 			crc = crc^0xA001;
0016f6 91a0 01f7 	LDS  R26,_crc
0016f8 91b0 01f8 	LDS  R27,_crc+1
0016fa e0e1      	LDI  R30,LOW(40961)
0016fb eaf0      	LDI  R31,HIGH(40961)
0016fc 940e 188e 	CALL SUBOPT_0x11
                 ; 0000 0625                         }
                 ; 0000 0626 		else
0016fe c002      	RJMP _0x38E
                 _0x38D:
                 ; 0000 0627                         {
                 ; 0000 0628                         crc = crc>>1;	//
0016ff 940e 1ca2 	CALL SUBOPT_0xA1
                 ; 0000 0629 			crc=crc&0x7fff;
                 ; 0000 062A                         }
                 _0x38E:
                 ; 0000 062B                 }
001701 5f1f      	SUBI R17,-1
001702 cfeb      	RJMP _0x38B
                 _0x38C:
                 ; 0000 062C         }
001703 8118      	LDD  R17,Y+0
001704 9622      	ADIW R28,2
001705 9508      	RET
                 ;//--------------------------------------//
                 ;//adc_value1- mA    reg 0
                 ;//adc_value2- mm    reg 1
                 ;//buf[buf_end]- ADC reg 2
                 ;
                 ;//1-ÙÛÌÍˆËˇ
                 ;//2-‡‰ÂÒ
                 ;//3-‰‡ÌÌ˚Â
                 ;
                 ;//0 4-20mA  20=4.4   =3606 k=20/3606 AIN0
                 ;//1  0-5mA   5=4.4   =3606 k= 5/3606 AIN1
                 ;//2 0-20mA  20=4.4   =3606 k=20/3606 AIN0
                 ;//3  0-10V  10=4.506 =3606 k=10/3691 AIN1
                 ;//4   0-5V   5=4.506 =3606 k= 5/3691 AIN0
                 ;
                 ;
                 ;// ÔÂÂ‰ÂÎ‡Ú¸ ·ËÚÓ‚˚È ÓÔÓÒ
                 
                 	.CSEG
                 _cabs:
001706 91e9          ld   r30,y+
001707 30e0          cpi  r30,0
001708 f40a          brpl __cabs0
001709 95e1          neg  r30
                 __cabs0:
00170a 9508          ret
                 _ftoa:
00170b 9724      	SBIW R28,4
00170c e0e0      	LDI  R30,LOW(0)
00170d 83e8      	ST   Y,R30
00170e 83e9      	STD  Y+1,R30
00170f 83ea      	STD  Y+2,R30
001710 e3ef      	LDI  R30,LOW(63)
001711 83eb      	STD  Y+3,R30
001712 931a      	ST   -Y,R17
001713 930a      	ST   -Y,R16
001714 85eb      	LDD  R30,Y+11
001715 85fc      	LDD  R31,Y+11+1
001716 3fef      	CPI  R30,LOW(0xFFFF)
001717 efaf      	LDI  R26,HIGH(0xFFFF)
001718 07fa      	CPC  R31,R26
001719 f439      	BRNE _0x200000D
00171a 940e 1cac 	CALL SUBOPT_0xA2
                +
00171c e6ee     +LDI R30 , LOW ( 2 * _0x2000000 + ( 0 ) )
00171d e0f2     +LDI R31 , HIGH ( 2 * _0x2000000 + ( 0 ) )
                 	__POINTW1FN _0x2000000,0
00171e 940e 1cb1 	CALL SUBOPT_0xA3
001720 c0b3      	RJMP _0x20A0003
                 _0x200000D:
001721 3fef      	CPI  R30,LOW(0x7FFF)
001722 e7af      	LDI  R26,HIGH(0x7FFF)
001723 07fa      	CPC  R31,R26
001724 f439      	BRNE _0x200000C
001725 940e 1cac 	CALL SUBOPT_0xA2
                +
001727 e6ef     +LDI R30 , LOW ( 2 * _0x2000000 + ( 1 ) )
001728 e0f2     +LDI R31 , HIGH ( 2 * _0x2000000 + ( 1 ) )
                 	__POINTW1FN _0x2000000,1
001729 940e 1cb1 	CALL SUBOPT_0xA3
00172b c0a8      	RJMP _0x20A0003
                 _0x200000C:
00172c 85ac      	LDD  R26,Y+12
00172d 23aa      	TST  R26
00172e f462      	BRPL _0x200000F
                +
00172f 85e9     +LDD R30 , Y + 9
001730 85fa     +LDD R31 , Y + 9 + 1
001731 856b     +LDD R22 , Y + 9 + 2
001732 857c     +LDD R23 , Y + 9 + 3
                 	__GETD1S 9
001733 940e 1ce0 	CALL __ANEGF1
001735 940e 1cb5 	CALL SUBOPT_0xA4
001737 940e 1cba 	CALL SUBOPT_0xA5
001739 e2ed      	LDI  R30,LOW(45)
00173a 93ec      	ST   X,R30
                 _0x200000F:
00173b 85a8      	LDD  R26,Y+8
00173c 30a7      	CPI  R26,LOW(0x7)
00173d f010      	BRLO _0x2000010
00173e e0e6      	LDI  R30,LOW(6)
00173f 87e8      	STD  Y+8,R30
                 _0x2000010:
001740 8518      	LDD  R17,Y+8
                 _0x2000011:
001741 2fe1      	MOV  R30,R17
001742 5011      	SUBI R17,1
001743 30e0      	CPI  R30,0
001744 f029      	BREQ _0x2000013
001745 940e 1cc1 	CALL SUBOPT_0xA6
001747 940e 18f1 	CALL SUBOPT_0x1D
001749 cff7      	RJMP _0x2000011
                 _0x2000013:
00174a 940e 1cc9 	CALL SUBOPT_0xA7
00174c 940e 1d86 	CALL __ADDF12
00174e 940e 1cb5 	CALL SUBOPT_0xA4
001750 e010      	LDI  R17,LOW(0)
001751 940e 190f 	CALL SUBOPT_0x23
001753 940e 18f1 	CALL SUBOPT_0x1D
                 _0x2000014:
001755 940e 1cc9 	CALL SUBOPT_0xA7
001757 940e 1e69 	CALL __CMPF12
001759 f098      	BRLO _0x2000016
00175a 940e 1905 	CALL SUBOPT_0x21
00175c 940e 1acc 	CALL SUBOPT_0x62
00175e 940e 1dd6 	CALL __MULF12
001760 940e 18f1 	CALL SUBOPT_0x1D
001762 5f1f      	SUBI R17,-LOW(1)
001763 3217      	CPI  R17,39
001764 f038      	BRLO _0x2000017
001765 940e 1cac 	CALL SUBOPT_0xA2
                +
001767 e7e3     +LDI R30 , LOW ( 2 * _0x2000000 + ( 5 ) )
001768 e0f2     +LDI R31 , HIGH ( 2 * _0x2000000 + ( 5 ) )
                 	__POINTW1FN _0x2000000,5
001769 940e 1cb1 	CALL SUBOPT_0xA3
00176b c068      	RJMP _0x20A0003
                 _0x2000017:
00176c cfe8      	RJMP _0x2000014
                 _0x2000016:
00176d 3010      	CPI  R17,0
00176e f429      	BRNE _0x2000018
00176f 940e 1cba 	CALL SUBOPT_0xA5
001771 e3e0      	LDI  R30,LOW(48)
001772 93ec      	ST   X,R30
001773 c02f      	RJMP _0x2000019
                 _0x2000018:
                 _0x200001A:
001774 2fe1      	MOV  R30,R17
001775 5011      	SUBI R17,1
001776 30e0      	CPI  R30,0
001777 f159      	BREQ _0x200001C
001778 940e 1cc1 	CALL SUBOPT_0xA6
                +
00177a e0a0     +LDI R26 , LOW ( 0x3F000000 )
00177b e0b0     +LDI R27 , HIGH ( 0x3F000000 )
00177c e080     +LDI R24 , BYTE3 ( 0x3F000000 )
00177d e39f     +LDI R25 , BYTE4 ( 0x3F000000 )
                 	__GETD2N 0x3F000000
00177e 940e 1d86 	CALL __ADDF12
001780 940e 1f0f 	CALL __PUTPARD1
001782 940e 1807 	CALL _floor
001784 940e 18f1 	CALL SUBOPT_0x1D
001786 940e 1cc9 	CALL SUBOPT_0xA7
001788 940e 1e24 	CALL __DIVF21
00178a 940e 1d13 	CALL __CFD1U
00178c 2f0e      	MOV  R16,R30
00178d 940e 1cba 	CALL SUBOPT_0xA5
00178f 2fe0      	MOV  R30,R16
001790 5de0      	SUBI R30,-LOW(48)
001791 93ec      	ST   X,R30
001792 2fe0      	MOV  R30,R16
001793 940e 1905 	CALL SUBOPT_0x21
001795 27ff      	CLR  R31
001796 2766      	CLR  R22
001797 2777      	CLR  R23
001798 940e 1d4c 	CALL __CDF1
00179a 940e 1dd6 	CALL __MULF12
00179c 940e 1ccf 	CALL SUBOPT_0xA8
00179e 940e 1a96 	CALL SUBOPT_0x59
0017a0 940e 1cb5 	CALL SUBOPT_0xA4
0017a2 cfd1      	RJMP _0x200001A
                 _0x200001C:
                 _0x2000019:
0017a3 85e8      	LDD  R30,Y+8
0017a4 30e0      	CPI  R30,0
0017a5 f151      	BREQ _0x20A0002
0017a6 940e 1cba 	CALL SUBOPT_0xA5
0017a8 e2ee      	LDI  R30,LOW(46)
0017a9 93ec      	ST   X,R30
                 _0x200001E:
0017aa 85e8      	LDD  R30,Y+8
0017ab 50e1      	SUBI R30,LOW(1)
0017ac 87e8      	STD  Y+8,R30
0017ad 5fef      	SUBI R30,-LOW(1)
0017ae f109      	BREQ _0x2000020
0017af 940e 1ccf 	CALL SUBOPT_0xA8
0017b1 940e 1acc 	CALL SUBOPT_0x62
0017b3 940e 1dd6 	CALL __MULF12
0017b5 940e 1cb5 	CALL SUBOPT_0xA4
                +
0017b7 85e9     +LDD R30 , Y + 9
0017b8 85fa     +LDD R31 , Y + 9 + 1
0017b9 856b     +LDD R22 , Y + 9 + 2
0017ba 857c     +LDD R23 , Y + 9 + 3
                 	__GETD1S 9
0017bb 940e 1d13 	CALL __CFD1U
0017bd 2f0e      	MOV  R16,R30
0017be 940e 1cba 	CALL SUBOPT_0xA5
0017c0 2fe0      	MOV  R30,R16
0017c1 5de0      	SUBI R30,-LOW(48)
0017c2 93ec      	ST   X,R30
0017c3 2fe0      	MOV  R30,R16
0017c4 940e 1ccf 	CALL SUBOPT_0xA8
0017c6 27ff      	CLR  R31
0017c7 2766      	CLR  R22
0017c8 2777      	CLR  R23
0017c9 940e 1d4c 	CALL __CDF1
0017cb 940e 1a96 	CALL SUBOPT_0x59
0017cd 940e 1cb5 	CALL SUBOPT_0xA4
0017cf cfda      	RJMP _0x200001E
                 _0x2000020:
                 _0x20A0002:
0017d0 81ae      	LDD  R26,Y+6
0017d1 81bf      	LDD  R27,Y+6+1
0017d2 e0e0      	LDI  R30,LOW(0)
0017d3 93ec      	ST   X,R30
                 _0x20A0003:
0017d4 8119      	LDD  R17,Y+1
0017d5 8108      	LDD  R16,Y+0
0017d6 962d      	ADIW R28,13
0017d7 9508      	RET
                 
                 	.DSEG
                 
                 	.CSEG
                 
                 	.CSEG
                 _ftrunc:
0017d8 817b         ldd  r23,y+3
0017d9 816a         ldd  r22,y+2
0017da 81f9         ldd  r31,y+1
0017db 81e8         ld   r30,y
0017dc fb77         bst  r23,7
0017dd 0f77         lsl  r23
0017de fd67         sbrc r22,7
0017df 6071         sbr  r23,1
0017e0 2f97         mov  r25,r23
0017e1 579e         subi r25,0x7e
0017e2 f081         breq __ftrunc0
0017e3 f078         brcs __ftrunc0
0017e4 3198         cpi  r25,24
0017e5 f490         brsh __ftrunc1
0017e6 27aa         clr  r26
0017e7 27bb         clr  r27
0017e8 2788         clr  r24
                 __ftrunc2:
0017e9 9408         sec
0017ea 9587         ror  r24
0017eb 95b7         ror  r27
0017ec 95a7         ror  r26
0017ed 959a         dec  r25
0017ee f7d1         brne __ftrunc2
0017ef 23ea         and  r30,r26
0017f0 23fb         and  r31,r27
0017f1 2368         and  r22,r24
0017f2 c005         rjmp __ftrunc1
                 __ftrunc0:
0017f3 94e8         clt
0017f4 2777         clr  r23
0017f5 27ee         clr  r30
0017f6 27ff         clr  r31
0017f7 2766         clr  r22
                 __ftrunc1:
0017f8 776f         cbr  r22,0x80
0017f9 9576         lsr  r23
0017fa f408         brcc __ftrunc3
0017fb 6860         sbr  r22,0x80
                 __ftrunc3:
0017fc f977         bld  r23,7
0017fd 91a9         ld   r26,y+
0017fe 91b9         ld   r27,y+
0017ff 9189         ld   r24,y+
001800 9199         ld   r25,y+
001801 17ea         cp   r30,r26
001802 07fb         cpc  r31,r27
001803 0768         cpc  r22,r24
001804 0779         cpc  r23,r25
001805 fb97         bst  r25,7
001806 9508         ret
                 _floor:
001807 940e 1c81 	CALL SUBOPT_0x9B
001809 940e 1f0f 	CALL __PUTPARD1
00180b 940e 17d8 	CALL _ftrunc
00180d 940e 1c7e 	CALL SUBOPT_0x9A
00180f f419          brne __floor1
                 __floor0:
001810 940e 1c81 	CALL SUBOPT_0x9B
001812 c009      	RJMP _0x20A0001
                 __floor1:
001813 f7e6          brtc __floor0
001814 940e 1c81 	CALL SUBOPT_0x9B
                +
001816 e0a0     +LDI R26 , LOW ( 0x3F800000 )
001817 e0b0     +LDI R27 , HIGH ( 0x3F800000 )
001818 e880     +LDI R24 , BYTE3 ( 0x3F800000 )
001819 e39f     +LDI R25 , BYTE4 ( 0x3F800000 )
                 	__GETD2N 0x3F800000
00181a 940e 1d7f 	CALL __SUBF12
                 _0x20A0001:
00181c 9624      	ADIW R28,4
00181d 9508      	RET
                 	#ifndef __SLEEP_DEFINED__
                 	#endif
                 
                 	.CSEG
                 
                 	.CSEG
                 
                 	.CSEG
                 _strcpyf:
00181e 91e9          ld   r30,y+
00181f 91f9          ld   r31,y+
001820 91a9          ld   r26,y+
001821 91b9          ld   r27,y+
001822 01cd          movw r24,r26
                 strcpyf0:
001823 9005      	lpm  r0,z+
001824 920d          st   x+,r0
001825 2000          tst  r0
001826 f7e1          brne strcpyf0
001827 01fc          movw r30,r24
001828 9508          ret
                 
                 	.DSEG
                 _rx_buffer:
000160           	.BYTE 0x40
                 _tx_buffer:
0001a0           	.BYTE 0x40
                 _pik_count:
0001e0           	.BYTE 0x1
                 _led_byte:
0001e1           	.BYTE 0xA
                 _sys_time:
0001eb           	.BYTE 0x4
                 _whait_time:
0001ef           	.BYTE 0x4
                 _count_led:
0001f3           	.BYTE 0x1
                 _drebezg:
0001f4           	.BYTE 0x1
                 _count_blink:
0001f5           	.BYTE 0x2
                 _crc:
0001f7           	.BYTE 0x2
                 
                 	.ESEG
                 _reg:
000000 00
000001 00
000002 00
000003 00        	.DB  LOW(0x0),HIGH(0x0),BYTE3(0x0),BYTE4(0x0)
000004 33
000005 33
000006 93
000007 40        	.DB  LOW(0x40933333),HIGH(0x40933333),BYTE3(0x40933333),BYTE4(0x40933333)
000008 33
000009 33
00000a e3
00000b 40        	.DB  LOW(0x40E33333),HIGH(0x40E33333),BYTE3(0x40E33333),BYTE4(0x40E33333)
00000c 00
00000d 00
00000e 00
00000f 00        	.DB  LOW(0x0),HIGH(0x0),BYTE3(0x0),BYTE4(0x0)
000010 00
000011 00
000012 a0
000013 40        	.DB  LOW(0x40A00000),HIGH(0x40A00000),BYTE3(0x40A00000),BYTE4(0x40A00000)
000014 00
000015 00
000016 00
000017 00        	.DB  LOW(0x0),HIGH(0x0),BYTE3(0x0),BYTE4(0x0)
000018 00
000019 00
00001a 80
00001b 3f        	.DB  LOW(0x3F800000),HIGH(0x3F800000),BYTE3(0x3F800000),BYTE4(0x3F800000)
00001c 00
00001d 00
00001e 00
00001f 00        	.DB  LOW(0x0),HIGH(0x0),BYTE3(0x0),BYTE4(0x0)
000020 00
000021 00
000022 80
000023 3f        	.DB  LOW(0x3F800000),HIGH(0x3F800000),BYTE3(0x3F800000),BYTE4(0x3F800000)
000024 00
000025 00
000026 00
000027 00        	.DB  LOW(0x0),HIGH(0x0),BYTE3(0x0),BYTE4(0x0)
000028 00
000029 00
00002a 00
00002b 00        	.DB  LOW(0x0),HIGH(0x0),BYTE3(0x0),BYTE4(0x0)
00002c 00
00002d 00
00002e 00
00002f 00        	.DB  LOW(0x0),HIGH(0x0),BYTE3(0x0),BYTE4(0x0)
000030 00
000031 00
000032 00
000033 00        	.DB  LOW(0x0),HIGH(0x0),BYTE3(0x0),BYTE4(0x0)
000034 00
000035 00
000036 a0
000037 41        	.DB  LOW(0x41A00000),HIGH(0x41A00000),BYTE3(0x41A00000),BYTE4(0x41A00000)
000038 00
000039 00
00003a 00
00003b 40        	.DB  LOW(0x40000000),HIGH(0x40000000),BYTE3(0x40000000),BYTE4(0x40000000)
00003c 00
00003d 00
00003e 00
00003f 40        	.DB  LOW(0x40000000),HIGH(0x40000000),BYTE3(0x40000000),BYTE4(0x40000000)
000040 00
000041 00
000042 00
000043 00        	.DB  LOW(0x0),HIGH(0x0),BYTE3(0x0),BYTE4(0x0)
000044 00
000045 00
000046 20
000047 41        	.DB  LOW(0x41200000),HIGH(0x41200000),BYTE3(0x41200000),BYTE4(0x41200000)
000048 00
000049 00
00004a 00
00004b 40        	.DB  LOW(0x40000000),HIGH(0x40000000),BYTE3(0x40000000),BYTE4(0x40000000)
00004c 00
00004d 00
00004e a0
00004f 40        	.DB  LOW(0x40A00000),HIGH(0x40A00000),BYTE3(0x40A00000),BYTE4(0x40A00000)
000050 00
000051 00
000052 00
000053 00        	.DB  LOW(0x0),HIGH(0x0),BYTE3(0x0),BYTE4(0x0)
000054 00
000055 00
000056 00
000057 00        	.DB  LOW(0x0),HIGH(0x0),BYTE3(0x0),BYTE4(0x0)
000058 00
000059 00
00005a 80
00005b 3f        	.DB  LOW(0x3F800000),HIGH(0x3F800000),BYTE3(0x3F800000),BYTE4(0x3F800000)
00005c 00
00005d 00
00005e 00
00005f 00        	.DB  LOW(0x0),HIGH(0x0),BYTE3(0x0),BYTE4(0x0)
000060 00
000061 00
000062 80
000063 3f        	.DB  LOW(0x3F800000),HIGH(0x3F800000),BYTE3(0x3F800000),BYTE4(0x3F800000)
000064 9a
000065 99
000066 09
000067 40        	.DB  LOW(0x4009999A),HIGH(0x4009999A),BYTE3(0x4009999A),BYTE4(0x4009999A)
000068 00
000069 00
00006a 80
00006b 3f        	.DB  LOW(0x3F800000),HIGH(0x3F800000),BYTE3(0x3F800000),BYTE4(0x3F800000)
00006c 00
00006d 00
00006e 00
00006f 00        	.DB  LOW(0x0),HIGH(0x0),BYTE3(0x0),BYTE4(0x0)
000070 33
000071 33
000072 93
000073 40        	.DB  LOW(0x40933333),HIGH(0x40933333),BYTE3(0x40933333),BYTE4(0x40933333)
000074 33
000075 33
000076 e3
000077 40        	.DB  LOW(0x40E33333),HIGH(0x40E33333),BYTE3(0x40E33333),BYTE4(0x40E33333)
000078 00
000079 00
00007a 00
00007b 00        	.DB  LOW(0x0),HIGH(0x0),BYTE3(0x0),BYTE4(0x0)
00007c 00
00007d 00
00007e a0
00007f 40        	.DB  LOW(0x40A00000),HIGH(0x40A00000),BYTE3(0x40A00000),BYTE4(0x40A00000)
000080 00
000081 00
000082 00
000083 00        	.DB  LOW(0x0),HIGH(0x0),BYTE3(0x0),BYTE4(0x0)
000084 00
000085 00
000086 80
000087 3f        	.DB  LOW(0x3F800000),HIGH(0x3F800000),BYTE3(0x3F800000),BYTE4(0x3F800000)
000088 00
000089 00
00008a 00
00008b 00        	.DB  LOW(0x0),HIGH(0x0),BYTE3(0x0),BYTE4(0x0)
00008c 00
00008d 00
00008e 80
00008f 3f        	.DB  LOW(0x3F800000),HIGH(0x3F800000),BYTE3(0x3F800000),BYTE4(0x3F800000)
000090 00
000091 00
000092 00
000093 00        	.DB  LOW(0x0),HIGH(0x0),BYTE3(0x0),BYTE4(0x0)
000094 00
000095 00
000096 00
000097 00        	.DB  LOW(0x0),HIGH(0x0),BYTE3(0x0),BYTE4(0x0)
000098 00
000099 00
00009a 00
00009b 00        	.DB  LOW(0x0),HIGH(0x0),BYTE3(0x0),BYTE4(0x0)
00009c 00
00009d 00
00009e 00
00009f 00        	.DB  LOW(0x0),HIGH(0x0),BYTE3(0x0),BYTE4(0x0)
0000a0 00
0000a1 00
0000a2 a0
0000a3 41        	.DB  LOW(0x41A00000),HIGH(0x41A00000),BYTE3(0x41A00000),BYTE4(0x41A00000)
0000a4 00
0000a5 00
0000a6 00
0000a7 40        	.DB  LOW(0x40000000),HIGH(0x40000000),BYTE3(0x40000000),BYTE4(0x40000000)
0000a8 00
0000a9 00
0000aa 00
0000ab 40        	.DB  LOW(0x40000000),HIGH(0x40000000),BYTE3(0x40000000),BYTE4(0x40000000)
0000ac 00
0000ad 00
0000ae 00
0000af 00        	.DB  LOW(0x0),HIGH(0x0),BYTE3(0x0),BYTE4(0x0)
0000b0 00
0000b1 00
0000b2 20
0000b3 41        	.DB  LOW(0x41200000),HIGH(0x41200000),BYTE3(0x41200000),BYTE4(0x41200000)
0000b4 00
0000b5 00
0000b6 00
0000b7 40        	.DB  LOW(0x40000000),HIGH(0x40000000),BYTE3(0x40000000),BYTE4(0x40000000)
0000b8 00
0000b9 00
0000ba a0
0000bb 40        	.DB  LOW(0x40A00000),HIGH(0x40A00000),BYTE3(0x40A00000),BYTE4(0x40A00000)
0000bc 00
0000bd 00
0000be 00
0000bf 00        	.DB  LOW(0x0),HIGH(0x0),BYTE3(0x0),BYTE4(0x0)
0000c0 00
0000c1 00
0000c2 00
0000c3 00        	.DB  LOW(0x0),HIGH(0x0),BYTE3(0x0),BYTE4(0x0)
0000c4 00
0000c5 00
0000c6 80
0000c7 3f        	.DB  LOW(0x3F800000),HIGH(0x3F800000),BYTE3(0x3F800000),BYTE4(0x3F800000)
0000c8 00
0000c9 00
0000ca 00
0000cb 00        	.DB  LOW(0x0),HIGH(0x0),BYTE3(0x0),BYTE4(0x0)
0000cc 00
0000cd 00
0000ce 80
0000cf 3f        	.DB  LOW(0x3F800000),HIGH(0x3F800000),BYTE3(0x3F800000),BYTE4(0x3F800000)
0000d0 9a
0000d1 99
0000d2 09
0000d3 40        	.DB  LOW(0x4009999A),HIGH(0x4009999A),BYTE3(0x4009999A),BYTE4(0x4009999A)
0000d4 00
0000d5 00
0000d6 80
0000d7 3f        	.DB  LOW(0x3F800000),HIGH(0x3F800000),BYTE3(0x3F800000),BYTE4(0x3F800000)
0000d8 00
0000d9 00
0000da 00
0000db 00        	.DB  LOW(0x0),HIGH(0x0),BYTE3(0x0),BYTE4(0x0)
0000dc 00
0000dd c0
0000de 79
0000df 44        	.DB  LOW(0x4479C000),HIGH(0x4479C000),BYTE3(0x4479C000),BYTE4(0x4479C000)
0000e0 00
0000e1 c0
0000e2 79
0000e3 44        	.DB  LOW(0x4479C000),HIGH(0x4479C000),BYTE3(0x4479C000),BYTE4(0x4479C000)
0000e4 00
0000e5 00
0000e6 f0
0000e7 41        	.DB  LOW(0x41F00000),HIGH(0x41F00000),BYTE3(0x41F00000),BYTE4(0x41F00000)
0000e8 00
0000e9 00
0000ea f0
0000eb 41        	.DB  LOW(0x41F00000),HIGH(0x41F00000),BYTE3(0x41F00000),BYTE4(0x41F00000)
0000ec 00
0000ed 00
0000ee 80
0000ef 3f        	.DB  LOW(0x3F800000),HIGH(0x3F800000),BYTE3(0x3F800000),BYTE4(0x3F800000)
0000f0 00
0000f1 00
0000f2 80
0000f3 3f        	.DB  LOW(0x3F800000),HIGH(0x3F800000),BYTE3(0x3F800000),BYTE4(0x3F800000)
0000f4 00
0000f5 00
0000f6 20
0000f7 41        	.DB  LOW(0x41200000),HIGH(0x41200000),BYTE3(0x41200000),BYTE4(0x41200000)
0000f8 00
0000f9 00
0000fa 00
0000fb 40        	.DB  LOW(0x40000000),HIGH(0x40000000),BYTE3(0x40000000),BYTE4(0x40000000)
0000fc 00
0000fd 00
0000fe 80
0000ff 3f        	.DB  LOW(0x3F800000),HIGH(0x3F800000),BYTE3(0x3F800000),BYTE4(0x3F800000)
000100 00
000101 00
000102 80
000103 3f        	.DB  LOW(0x3F800000),HIGH(0x3F800000),BYTE3(0x3F800000),BYTE4(0x3F800000)
000104 00
000105 00
000106 00
000107 40        	.DB  LOW(0x40000000),HIGH(0x40000000),BYTE3(0x40000000),BYTE4(0x40000000)
000108 00
000109 c0
00010a 79
00010b 44        	.DB  LOW(0x4479C000),HIGH(0x4479C000),BYTE3(0x4479C000),BYTE4(0x4479C000)
00010c 00
00010d c0
00010e 79
00010f 44        	.DB  LOW(0x4479C000),HIGH(0x4479C000),BYTE3(0x4479C000),BYTE4(0x4479C000)
000110 00
000111 00
000112 20
000113 41        	.DB  LOW(0x41200000),HIGH(0x41200000),BYTE3(0x41200000),BYTE4(0x41200000)
000114 00
000115 00
000116 20
000117 41        	.DB  LOW(0x41200000),HIGH(0x41200000),BYTE3(0x41200000),BYTE4(0x41200000)
000118 00
000119 00
00011a a0
00011b 40        	.DB  LOW(0x40A00000),HIGH(0x40A00000),BYTE3(0x40A00000),BYTE4(0x40A00000)
00011c 00
00011d 00
00011e f0
00011f 41        	.DB  LOW(0x41F00000),HIGH(0x41F00000),BYTE3(0x41F00000),BYTE4(0x41F00000)
000120 00
000121 00
000122 80
000123 40        	.DB  LOW(0x40800000),HIGH(0x40800000),BYTE3(0x40800000),BYTE4(0x40800000)
000124 00
000125 00
000126 20
000127 41        	.DB  LOW(0x41200000),HIGH(0x41200000),BYTE3(0x41200000),BYTE4(0x41200000)
000128 00
000129 00
00012a 80
00012b 3f        	.DB  LOW(0x3F800000),HIGH(0x3F800000),BYTE3(0x3F800000),BYTE4(0x3F800000)
00012c 00
00012d 00
00012e 80
00012f 3f        	.DB  LOW(0x3F800000),HIGH(0x3F800000),BYTE3(0x3F800000),BYTE4(0x3F800000)
000130 66
000131 66
000132 e6
000133 3f        	.DB  LOW(0x3FE66666),HIGH(0x3FE66666),BYTE3(0x3FE66666),BYTE4(0x3FE66666)
000134 00
000135 00
000136 80
000137 3f        	.DB  LOW(0x3F800000),HIGH(0x3F800000),BYTE3(0x3F800000),BYTE4(0x3F800000)
000138 00
000139 00
00013a 80
00013b 3f        	.DB  LOW(0x3F800000),HIGH(0x3F800000),BYTE3(0x3F800000),BYTE4(0x3F800000)
00013c 0a
00013d d7
00013e 4f
00013f 41        	.DB  LOW(0x414FD70A),HIGH(0x414FD70A),BYTE3(0x414FD70A),BYTE4(0x414FD70A)
000140 00
000141 00
000142 77
000143 43        	.DB  LOW(0x43770000),HIGH(0x43770000),BYTE3(0x43770000),BYTE4(0x43770000)
000144 00
000145 00
000146 00
000147 00        	.DB  LOW(0x0),HIGH(0x0),BYTE3(0x0),BYTE4(0x0)
000148 00
000149 c0
00014a 79
00014b c4        	.DB  LOW(0xC479C000),HIGH(0xC479C000),BYTE3(0xC479C000),BYTE4(0xC479C000)
00014c 00
00014d c0
00014e 79
00014f c4        	.DB  LOW(0xC479C000),HIGH(0xC479C000),BYTE3(0xC479C000),BYTE4(0xC479C000)
000150 00
000151 00
000152 00
000153 00        	.DB  LOW(0x0),HIGH(0x0),BYTE3(0x0),BYTE4(0x0)
000154 00
000155 00
000156 00
000157 00        	.DB  LOW(0x0),HIGH(0x0),BYTE3(0x0),BYTE4(0x0)
000158 00
000159 00
00015a 00
00015b 00        	.DB  LOW(0x0),HIGH(0x0),BYTE3(0x0),BYTE4(0x0)
00015c 00
00015d 00
00015e 00
00015f 00        	.DB  LOW(0x0),HIGH(0x0),BYTE3(0x0),BYTE4(0x0)
000160 00
000161 00
000162 00
000163 00        	.DB  LOW(0x0),HIGH(0x0),BYTE3(0x0),BYTE4(0x0)
000164 00
000165 00
000166 80
000167 3f        	.DB  LOW(0x3F800000),HIGH(0x3F800000),BYTE3(0x3F800000),BYTE4(0x3F800000)
000168 00
000169 00
00016a 00
00016b 00        	.DB  LOW(0x0),HIGH(0x0),BYTE3(0x0),BYTE4(0x0)
00016c 00
00016d 00
00016e 00
00016f 00        	.DB  LOW(0x0),HIGH(0x0),BYTE3(0x0),BYTE4(0x0)
000170 00
000171 00
000172 00
000173 00        	.DB  LOW(0x0),HIGH(0x0),BYTE3(0x0),BYTE4(0x0)
000174 00
000175 c0
000176 79
000177 c4        	.DB  LOW(0xC479C000),HIGH(0xC479C000),BYTE3(0xC479C000),BYTE4(0xC479C000)
000178 00
000179 c0
00017a 79
00017b c4        	.DB  LOW(0xC479C000),HIGH(0xC479C000),BYTE3(0xC479C000),BYTE4(0xC479C000)
00017c 00
00017d 00
00017e 00
00017f 00        	.DB  LOW(0x0),HIGH(0x0),BYTE3(0x0),BYTE4(0x0)
000180 00
000181 00
000182 00
000183 00        	.DB  LOW(0x0),HIGH(0x0),BYTE3(0x0),BYTE4(0x0)
000184 00
000185 00
000186 00
000187 00        	.DB  LOW(0x0),HIGH(0x0),BYTE3(0x0),BYTE4(0x0)
000188 00
000189 00
00018a 00
00018b 00        	.DB  LOW(0x0),HIGH(0x0),BYTE3(0x0),BYTE4(0x0)
00018c 00
00018d 00
00018e 00
00018f 00        	.DB  LOW(0x0),HIGH(0x0),BYTE3(0x0),BYTE4(0x0)
000190 00
000191 00
000192 80
000193 3f        	.DB  LOW(0x3F800000),HIGH(0x3F800000),BYTE3(0x3F800000),BYTE4(0x3F800000)
000194 00
000195 00
000196 00
000197 00        	.DB  LOW(0x0),HIGH(0x0),BYTE3(0x0),BYTE4(0x0)
000198 00
000199 00
00019a 00
00019b 00        	.DB  LOW(0x0),HIGH(0x0),BYTE3(0x0),BYTE4(0x0)
00019c cd
00019d cc
00019e 4c
00019f 3e        	.DB  LOW(0x3E4CCCCD),HIGH(0x3E4CCCCD),BYTE3(0x3E4CCCCD),BYTE4(0x3E4CCCCD)
0001a0 00
0001a1 00
0001a2 00
0001a3 00        	.DB  LOW(0x0),HIGH(0x0),BYTE3(0x0),BYTE4(0x0)
0001a4 00
0001a5 00
0001a6 80
0001a7 3f        	.DB  LOW(0x3F800000),HIGH(0x3F800000),BYTE3(0x3F800000),BYTE4(0x3F800000)
0001a8 00
0001a9 00
0001aa 80
0001ab 3f        	.DB  LOW(0x3F800000),HIGH(0x3F800000),BYTE3(0x3F800000),BYTE4(0x3F800000)
0001ac 00
0001ad 00
0001ae 00
0001af 00        	.DB  LOW(0x0),HIGH(0x0),BYTE3(0x0),BYTE4(0x0)
                 _ee_point:
0001b0 03        	.DB  0x3
                 _crceep:
0001b1 00 00     	.DW  0x0
                 _crcstatic:
0001b3 bb 70     	.DW  0x70BB
                 _crc1digit:
0001b5 03        	.DB  0x3
                 _crc2digit:
0001b6 63        	.DB  0x63
                 _crc3digit:
0001b7 02        	.DB  0x2
                 _crc4digit:
0001b8 01        	.DB  0x1
                 
                 	.DSEG
                 _mode:
0001f9           	.BYTE 0x1
                 _point:
0001fa           	.BYTE 0x1
                 _work_point:
0001fb           	.BYTE 0x1
                 _ed:
0001fc           	.BYTE 0x1
                 _des:
0001fd           	.BYTE 0x1
                 _sot:
0001fe           	.BYTE 0x1
                 _tis:
0001ff           	.BYTE 0x1
                 _i:
000200           	.BYTE 0x1
                 _count_key:
000201           	.BYTE 0x1
                 _count_key1:
000202           	.BYTE 0x1
                 _buf:
000203           	.BYTE 0x12
                 _buf_end:
000215           	.BYTE 0x1
                 _x:
000216           	.BYTE 0x4
                 _adc_filter:
00021a           	.BYTE 0x4
                 _j:
00021e           	.BYTE 0x1
                 _count_register:
00021f           	.BYTE 0x1
                 _count_key2:
000220           	.BYTE 0x1
                 _start_time:
000221           	.BYTE 0x4
                 _start_time_mode:
000225           	.BYTE 0x4
                 _time_key:
000229           	.BYTE 0x4
                 _error:
00022d           	.BYTE 0x1
                 _adc_value1:
00022e           	.BYTE 0x4
                 _adc_value2:
000232           	.BYTE 0x4
                 _adc_value3:
000236           	.BYTE 0x4
                 __seed_G100:
00023a           	.BYTE 0x4
                 
                 	.CSEG
                 ;OPTIMIZER ADDED SUBROUTINE, CALLED 4 TIMES, CODE SIZE REDUCTION:6 WORDS
                 SUBOPT_0x0:
001829 e0f0      	LDI  R31,0
00182a 5ae0      	SUBI R30,LOW(-_rx_buffer)
00182b 4ffe      	SBCI R31,HIGH(-_rx_buffer)
00182c 9508      	RET
                 
                 ;OPTIMIZER ADDED SUBROUTINE, CALLED 2 TIMES, CODE SIZE REDUCTION:3 WORDS
                 SUBOPT_0x1:
00182d 2ded      	MOV  R30,R13
00182e e0f0      	LDI  R31,0
00182f 56e0      	SUBI R30,LOW(-_tx_buffer)
001830 4ffe      	SBCI R31,HIGH(-_tx_buffer)
001831 81e0      	LD   R30,Z
001832 b9ec      	OUT  0xC,R30
001833 9508      	RET
                 
                 ;OPTIMIZER ADDED SUBROUTINE, CALLED 2 TIMES, CODE SIZE REDUCTION:1 WORDS
                 SUBOPT_0x2:
001834 91a0 01e0 	LDS  R26,_pik_count
001836 5faf      	SUBI R26,-LOW(1)
001837 93a0 01e0 	STS  _pik_count,R26
001839 3ca9      	CPI  R26,LOW(0xC9)
00183a 9508      	RET
                 
                 ;OPTIMIZER ADDED SUBROUTINE, CALLED 22 TIMES, CODE SIZE REDUCTION:123 WORDS
                 SUBOPT_0x3:
00183b 91e0 01eb 	LDS  R30,_sys_time
00183d 91f0 01ec 	LDS  R31,_sys_time+1
00183f 9160 01ed 	LDS  R22,_sys_time+2
001841 9170 01ee 	LDS  R23,_sys_time+3
001843 9508      	RET
                 
                 ;OPTIMIZER ADDED SUBROUTINE, CALLED 3 TIMES, CODE SIZE REDUCTION:1 WORDS
                 SUBOPT_0x4:
001844 e0a0      	LDI  R26,0
001845 fc25      	SBRC R2,5
001846 e0a1      	LDI  R26,1
001847 30a0      	CPI  R26,LOW(0x0)
001848 9508      	RET
                 
                 ;OPTIMIZER ADDED SUBROUTINE, CALLED 3 TIMES, CODE SIZE REDUCTION:3 WORDS
                 SUBOPT_0x5:
001849 9468      	SET
00184a f825      	BLD  R2,5
00184b e0e0      	LDI  R30,LOW(0)
00184c 93e0 01f4 	STS  _drebezg,R30
00184e 9508      	RET
                 
                 ;OPTIMIZER ADDED SUBROUTINE, CALLED 3 TIMES, CODE SIZE REDUCTION:5 WORDS
                 SUBOPT_0x6:
00184f 91a0 01f4 	LDS  R26,_drebezg
001851 5faf      	SUBI R26,-LOW(1)
001852 93a0 01f4 	STS  _drebezg,R26
001854 3ca9      	CPI  R26,LOW(0xC9)
001855 9508      	RET
                 
                 ;OPTIMIZER ADDED SUBROUTINE, CALLED 3 TIMES, CODE SIZE REDUCTION:1 WORDS
                 SUBOPT_0x7:
001856 e0a0      	LDI  R26,0
001857 fc34      	SBRC R3,4
001858 e0a1      	LDI  R26,1
001859 30a0      	CPI  R26,LOW(0x0)
00185a 9508      	RET
                 
                 ;OPTIMIZER ADDED SUBROUTINE, CALLED 3 TIMES, CODE SIZE REDUCTION:1 WORDS
                 SUBOPT_0x8:
00185b e0a0      	LDI  R26,0
00185c fc35      	SBRC R3,5
00185d e0a1      	LDI  R26,1
00185e 30a0      	CPI  R26,LOW(0x0)
00185f 9508      	RET
                 
                 ;OPTIMIZER ADDED SUBROUTINE, CALLED 4 TIMES, CODE SIZE REDUCTION:3 WORDS
                 SUBOPT_0x9:
001860 2fe1      	MOV  R30,R17
001861 e0f0      	LDI  R31,0
001862 9508      	RET
                 
                 ;OPTIMIZER ADDED SUBROUTINE, CALLED 3 TIMES, CODE SIZE REDUCTION:1 WORDS
                 SUBOPT_0xA:
001863 e0a0      	LDI  R26,0
001864 fc47      	SBRC R4,7
001865 e0a1      	LDI  R26,1
001866 30a0      	CPI  R26,LOW(0x0)
001867 9508      	RET
                 
                 ;OPTIMIZER ADDED SUBROUTINE, CALLED 3 TIMES, CODE SIZE REDUCTION:1 WORDS
                 SUBOPT_0xB:
001868 e0a0      	LDI  R26,0
001869 fc46      	SBRC R4,6
00186a e0a1      	LDI  R26,1
00186b 30a0      	CPI  R26,LOW(0x0)
00186c 9508      	RET
                 
                 ;OPTIMIZER ADDED SUBROUTINE, CALLED 2 TIMES, CODE SIZE REDUCTION:1 WORDS
                 SUBOPT_0xC:
00186d 7810      	ANDI R17,LOW(128)
00186e 81ec      	LDD  R30,Y+4
00186f 93ea      	ST   -Y,R30
001870 940e 0316 	CALL _led_calk
001872 2b1e      	OR   R17,R30
001873 9508      	RET
                 
                 ;OPTIMIZER ADDED SUBROUTINE, CALLED 2 TIMES, CODE SIZE REDUCTION:1 WORDS
                 SUBOPT_0xD:
001874 7810      	ANDI R17,LOW(128)
001875 81eb      	LDD  R30,Y+3
001876 93ea      	ST   -Y,R30
001877 940e 0316 	CALL _led_calk
001879 2b1e      	OR   R17,R30
00187a 9508      	RET
                 
                 ;OPTIMIZER ADDED SUBROUTINE, CALLED 2 TIMES, CODE SIZE REDUCTION:1 WORDS
                 SUBOPT_0xE:
00187b 7810      	ANDI R17,LOW(128)
00187c 81ea      	LDD  R30,Y+2
00187d 93ea      	ST   -Y,R30
00187e 940e 0316 	CALL _led_calk
001880 2b1e      	OR   R17,R30
001881 9508      	RET
                 
                 ;OPTIMIZER ADDED SUBROUTINE, CALLED 2 TIMES, CODE SIZE REDUCTION:1 WORDS
                 SUBOPT_0xF:
001882 7810      	ANDI R17,LOW(128)
001883 81e9      	LDD  R30,Y+1
001884 93ea      	ST   -Y,R30
001885 940e 0316 	CALL _led_calk
001887 2b1e      	OR   R17,R30
001888 9508      	RET
                 
                 ;OPTIMIZER ADDED SUBROUTINE, CALLED 7 TIMES, CODE SIZE REDUCTION:9 WORDS
                 SUBOPT_0x10:
001889 91e0 01f7 	LDS  R30,_crc
00188b 91f0 01f8 	LDS  R31,_crc+1
00188d 9508      	RET
                 
                 ;OPTIMIZER ADDED SUBROUTINE, CALLED 2 TIMES, CODE SIZE REDUCTION:1 WORDS
                 SUBOPT_0x11:
00188e 27ea      	EOR  R30,R26
00188f 27fb      	EOR  R31,R27
001890 93e0 01f7 	STS  _crc,R30
001892 93f0 01f8 	STS  _crc+1,R31
001894 9508      	RET
                 
                 ;OPTIMIZER ADDED SUBROUTINE, CALLED 3 TIMES, CODE SIZE REDUCTION:1 WORDS
                 SUBOPT_0x12:
001895 01de      	MOVW R26,R28
001896 9614      	ADIW R26,4
001897 0fae      	ADD  R26,R30
001898 1fbf      	ADC  R27,R31
001899 9508      	RET
                 
                 ;OPTIMIZER ADDED SUBROUTINE, CALLED 4 TIMES, CODE SIZE REDUCTION:9 WORDS
                 SUBOPT_0x13:
00189a 2fe0      	MOV  R30,R16
00189b e0f0      	LDI  R31,0
00189c 01de      	MOVW R26,R28
00189d 961d      	ADIW R26,13
00189e 9508      	RET
                 
                 ;OPTIMIZER ADDED SUBROUTINE, CALLED 3 TIMES, CODE SIZE REDUCTION:5 WORDS
                 SUBOPT_0x14:
00189f 53e0      	SUBI R30,LOW(48)
0018a0 93e0 01fc 	STS  _ed,R30
0018a2 91e0 01ff 	LDS  R30,_tis
0018a4 30e0      	CPI  R30,0
0018a5 9508      	RET
                 
                 ;OPTIMIZER ADDED SUBROUTINE, CALLED 2 TIMES, CODE SIZE REDUCTION:1 WORDS
                 SUBOPT_0x15:
0018a6 e2e0      	LDI  R30,LOW(32)
0018a7 93e0 01ff 	STS  _tis,R30
0018a9 91e0 01fe 	LDS  R30,_sot
0018ab 30e0      	CPI  R30,0
0018ac 9508      	RET
                 
                 ;OPTIMIZER ADDED SUBROUTINE, CALLED 3 TIMES, CODE SIZE REDUCTION:17 WORDS
                 SUBOPT_0x16:
                +
0018ad e4a8     +LDI R26 , LOW ( _reg + ( 72 ) )
0018ae e0b0     +LDI R27 , HIGH ( _reg + ( 72 ) )
                 	__POINTW2MN _reg,72
0018af 940e 1f26 	CALL __EEPROMRDD
0018b1 e0a0      	LDI  R26,LOW(_i)
0018b2 e0b2      	LDI  R27,HIGH(_i)
0018b3 940e 1d13 	CALL __CFD1U
0018b5 93ec      	ST   X,R30
0018b6 91e0 0200 	LDS  R30,_i
0018b8 30e0      	CPI  R30,0
0018b9 9508      	RET
                 
                 ;OPTIMIZER ADDED SUBROUTINE, CALLED 3 TIMES, CODE SIZE REDUCTION:3 WORDS
                 SUBOPT_0x17:
0018ba 91a0 0202 	LDS  R26,_count_key1
0018bc 5faf      	SUBI R26,-LOW(1)
0018bd 93a0 0202 	STS  _count_key1,R26
0018bf 9508      	RET
                 
                 ;OPTIMIZER ADDED SUBROUTINE, CALLED 6 TIMES, CODE SIZE REDUCTION:7 WORDS
                 SUBOPT_0x18:
0018c0 df7a      	RCALL SUBOPT_0x3
0018c1 940e 1e89 	CALL __SUBD12
0018c3 9508      	RET
                 
                 ;OPTIMIZER ADDED SUBROUTINE, CALLED 3 TIMES, CODE SIZE REDUCTION:11 WORDS
                 SUBOPT_0x19:
0018c4 91e0 0215 	LDS  R30,_buf_end
0018c6 e0a3      	LDI  R26,LOW(_buf)
0018c7 e0b2      	LDI  R27,HIGH(_buf)
0018c8 e0f0      	LDI  R31,0
0018c9 0fee      	LSL  R30
0018ca 1fff      	ROL  R31
0018cb 9508      	RET
                 
                 ;OPTIMIZER ADDED SUBROUTINE, CALLED 5 TIMES, CODE SIZE REDUCTION:25 WORDS
                 SUBOPT_0x1A:
0018cc 91e0 021e 	LDS  R30,_j
0018ce e0f0      	LDI  R31,0
0018cf 01de      	MOVW R26,R28
0018d0 9616      	ADIW R26,6
0018d1 0fae      	ADD  R26,R30
0018d2 1fbf      	ADC  R27,R31
0018d3 9508      	RET
                 
                 ;OPTIMIZER ADDED SUBROUTINE, CALLED 2 TIMES, CODE SIZE REDUCTION:21 WORDS
                 SUBOPT_0x1B:
0018d4 91e0 021e 	LDS  R30,_j
0018d6 e0a3      	LDI  R26,LOW(_buf)
0018d7 e0b2      	LDI  R27,HIGH(_buf)
0018d8 e0f0      	LDI  R31,0
0018d9 0fee      	LSL  R30
0018da 1fff      	ROL  R31
0018db 0fae      	ADD  R26,R30
0018dc 1fbf      	ADC  R27,R31
0018dd 900d      	LD   R0,X+
0018de 901c      	LD   R1,X
0018df 91e0 0200 	LDS  R30,_i
0018e1 e0a3      	LDI  R26,LOW(_buf)
0018e2 e0b2      	LDI  R27,HIGH(_buf)
0018e3 e0f0      	LDI  R31,0
0018e4 0fee      	LSL  R30
0018e5 1fff      	ROL  R31
0018e6 0fae      	ADD  R26,R30
0018e7 1fbf      	ADC  R27,R31
0018e8 940e 1ef4 	CALL __GETW1P
0018ea 9508      	RET
                 
                 ;OPTIMIZER ADDED SUBROUTINE, CALLED 3 TIMES, CODE SIZE REDUCTION:3 WORDS
                 SUBOPT_0x1C:
0018eb 91e0 0200 	LDS  R30,_i
0018ed 5fef      	SUBI R30,-LOW(1)
0018ee 93e0 0200 	STS  _i,R30
0018f0 9508      	RET
                 
                 ;OPTIMIZER ADDED SUBROUTINE, CALLED 7 TIMES, CODE SIZE REDUCTION:9 WORDS
                 SUBOPT_0x1D:
                +
0018f1 83ea     +STD Y + 2 , R30
0018f2 83fb     +STD Y + 2 + 1 , R31
0018f3 836c     +STD Y + 2 + 2 , R22
0018f4 837d     +STD Y + 2 + 3 , R23
                 	__PUTD1S 2
0018f5 9508      	RET
                 
                 ;OPTIMIZER ADDED SUBROUTINE, CALLED 5 TIMES, CODE SIZE REDUCTION:5 WORDS
                 SUBOPT_0x1E:
                +
0018f6 81ea     +LDD R30 , Y + 2
0018f7 81fb     +LDD R31 , Y + 2 + 1
0018f8 816c     +LDD R22 , Y + 2 + 2
0018f9 817d     +LDD R23 , Y + 2 + 3
                 	__GETD1S 2
0018fa 9508      	RET
                 
                 ;OPTIMIZER ADDED SUBROUTINE, CALLED 3 TIMES, CODE SIZE REDUCTION:1 WORDS
                 SUBOPT_0x1F:
                +
0018fb e6af     +LDI R26 , LOW ( 0x3A83126F )
0018fc e1b2     +LDI R27 , HIGH ( 0x3A83126F )
0018fd e883     +LDI R24 , BYTE3 ( 0x3A83126F )
0018fe e39a     +LDI R25 , BYTE4 ( 0x3A83126F )
                 	__GETD2N 0x3A83126F
0018ff 9508      	RET
                 
                 ;OPTIMIZER ADDED SUBROUTINE, CALLED 3 TIMES, CODE SIZE REDUCTION:1 WORDS
                 SUBOPT_0x20:
001900 0fae      	ADD  R26,R30
001901 1fbf      	ADC  R27,R31
001902 940e 1ef4 	CALL __GETW1P
001904 9508      	RET
                 
                 ;OPTIMIZER ADDED SUBROUTINE, CALLED 6 TIMES, CODE SIZE REDUCTION:7 WORDS
                 SUBOPT_0x21:
                +
001905 81aa     +LDD R26 , Y + 2
001906 81bb     +LDD R27 , Y + 2 + 1
001907 818c     +LDD R24 , Y + 2 + 2
001908 819d     +LDD R25 , Y + 2 + 3
                 	__GETD2S 2
001909 9508      	RET
                 
                 ;OPTIMIZER ADDED SUBROUTINE, CALLED 3 TIMES, CODE SIZE REDUCTION:1 WORDS
                 SUBOPT_0x22:
00190a 2766      	CLR  R22
00190b 2777      	CLR  R23
00190c 940e 1d4c 	CALL __CDF1
00190e 9508      	RET
                 
                 ;OPTIMIZER ADDED SUBROUTINE, CALLED 3 TIMES, CODE SIZE REDUCTION:1 WORDS
                 SUBOPT_0x23:
                +
00190f e0e0     +LDI R30 , LOW ( 0x3F800000 )
001910 e0f0     +LDI R31 , HIGH ( 0x3F800000 )
001911 e860     +LDI R22 , BYTE3 ( 0x3F800000 )
001912 e37f     +LDI R23 , BYTE4 ( 0x3F800000 )
                 	__GETD1N 0x3F800000
001913 9508      	RET
                 
                 ;OPTIMIZER ADDED SUBROUTINE, CALLED 6 TIMES, CODE SIZE REDUCTION:7 WORDS
                 SUBOPT_0x24:
                +
001914 e0a4     +LDI R26 , LOW ( _reg + ( 4 ) )
001915 e0b0     +LDI R27 , HIGH ( _reg + ( 4 ) )
                 	__POINTW2MN _reg,4
001916 940e 1f26 	CALL __EEPROMRDD
001918 9508      	RET
                 
                 ;OPTIMIZER ADDED SUBROUTINE, CALLED 6 TIMES, CODE SIZE REDUCTION:7 WORDS
                 SUBOPT_0x25:
                +
001919 e0a8     +LDI R26 , LOW ( _reg + ( 8 ) )
00191a e0b0     +LDI R27 , HIGH ( _reg + ( 8 ) )
                 	__POINTW2MN _reg,8
00191b 940e 1f26 	CALL __EEPROMRDD
00191d 9508      	RET
                 
                 ;OPTIMIZER ADDED SUBROUTINE, CALLED 6 TIMES, CODE SIZE REDUCTION:17 WORDS
                 SUBOPT_0x26:
00191e efef      	LDI  R30,LOW(65535)
00191f efff      	LDI  R31,HIGH(65535)
001920 93e0 01f7 	STS  _crc,R30
001922 93f0 01f8 	STS  _crc+1,R31
001924 9508      	RET
                 
                 ;OPTIMIZER ADDED SUBROUTINE, CALLED 2 TIMES, CODE SIZE REDUCTION:1 WORDS
                 SUBOPT_0x27:
001925 eba0      	LDI  R26,LOW(_ee_point)
001926 e0b1      	LDI  R27,HIGH(_ee_point)
001927 940e 1f2e 	CALL __EEPROMRDB
001929 93e0 01fa 	STS  _point,R30
00192b 9508      	RET
                 
                 ;OPTIMIZER ADDED SUBROUTINE, CALLED 2 TIMES, CODE SIZE REDUCTION:8 WORDS
                 SUBOPT_0x28:
00192c df0e      	RCALL SUBOPT_0x3
00192d 93e0 0221 	STS  _start_time,R30
00192f 93f0 0222 	STS  _start_time+1,R31
001931 9360 0223 	STS  _start_time+2,R22
001933 9370 0224 	STS  _start_time+3,R23
001935 e0e1      	LDI  R30,LOW(1)
001936 93e0 021f 	STS  _count_register,R30
001938 9508      	RET
                 
                 ;OPTIMIZER ADDED SUBROUTINE, CALLED 2 TIMES, CODE SIZE REDUCTION:7 WORDS
                 SUBOPT_0x29:
001939 e7e6      	LDI  R30,LOW(118)
00193a 93e0 01ff 	STS  _tis,R30
00193c e0e1      	LDI  R30,LOW(1)
00193d 93e0 01fe 	STS  _sot,R30
00193f e0e0      	LDI  R30,LOW(0)
001940 93e0 01fd 	STS  _des,R30
001942 e0e1      	LDI  R30,LOW(1)
001943 93e0 01fc 	STS  _ed,R30
001945 9508      	RET
                 
                 ;OPTIMIZER ADDED SUBROUTINE, CALLED 18 TIMES, CODE SIZE REDUCTION:167 WORDS
                 SUBOPT_0x2A:
001946 91e0 01ff 	LDS  R30,_tis
001948 93ea      	ST   -Y,R30
001949 91e0 01fe 	LDS  R30,_sot
00194b 93ea      	ST   -Y,R30
00194c 91e0 01fd 	LDS  R30,_des
00194e 93ea      	ST   -Y,R30
00194f 91e0 01fc 	LDS  R30,_ed
001951 93ea      	ST   -Y,R30
001952 9508      	RET
                 
                 ;OPTIMIZER ADDED SUBROUTINE, CALLED 7 TIMES, CODE SIZE REDUCTION:9 WORDS
                 SUBOPT_0x2B:
001953 940e 0480 	CALL _set_digit_on
001955 cff0      	RJMP SUBOPT_0x2A
                 
                 ;OPTIMIZER ADDED SUBROUTINE, CALLED 5 TIMES, CODE SIZE REDUCTION:61 WORDS
                 SUBOPT_0x2C:
001956 940e 049a 	CALL _set_digit_off
001958 e0e0      	LDI  R30,LOW(0)
001959 93ea      	ST   -Y,R30
00195a 93ea      	ST   -Y,R30
00195b 93ea      	ST   -Y,R30
00195c 93ea      	ST   -Y,R30
00195d 93ea      	ST   -Y,R30
00195e 93ea      	ST   -Y,R30
00195f 93ea      	ST   -Y,R30
001960 93ea      	ST   -Y,R30
001961 9508      	RET
                 
                 ;OPTIMIZER ADDED SUBROUTINE, CALLED 3 TIMES, CODE SIZE REDUCTION:45 WORDS
                 SUBOPT_0x2D:
001962 940e 0392 	CALL _set_led_on
001964 e0e0      	LDI  R30,LOW(0)
001965 93ea      	ST   -Y,R30
001966 93ea      	ST   -Y,R30
001967 93ea      	ST   -Y,R30
001968 93ea      	ST   -Y,R30
001969 93ea      	ST   -Y,R30
00196a 93ea      	ST   -Y,R30
00196b 93ea      	ST   -Y,R30
00196c 93ea      	ST   -Y,R30
00196d 940e 040a 	CALL _set_led_off
00196f edec      	LDI  R30,LOW(1500)
001970 e0f5      	LDI  R31,HIGH(1500)
001971 93fa      	ST   -Y,R31
001972 93ea      	ST   -Y,R30
001973 940c 1cd4 	JMP  _delay_ms
                 
                 ;OPTIMIZER ADDED SUBROUTINE, CALLED 6 TIMES, CODE SIZE REDUCTION:7 WORDS
                 SUBOPT_0x2E:
                +
001975 e6a0     +LDI R26 , LOW ( _reg + ( 96 ) )
001976 e0b0     +LDI R27 , HIGH ( _reg + ( 96 ) )
                 	__POINTW2MN _reg,96
001977 940e 1f26 	CALL __EEPROMRDD
001979 9508      	RET
                 
                 ;OPTIMIZER ADDED SUBROUTINE, CALLED 3 TIMES, CODE SIZE REDUCTION:5 WORDS
                 SUBOPT_0x2F:
00197a 01df      	MOVW R26,R30
00197b 01cb      	MOVW R24,R22
                +
00197c e0e0     +LDI R30 , LOW ( 0x447A0000 )
00197d e0f0     +LDI R31 , HIGH ( 0x447A0000 )
00197e e76a     +LDI R22 , BYTE3 ( 0x447A0000 )
00197f e474     +LDI R23 , BYTE4 ( 0x447A0000 )
                 	__GETD1N 0x447A0000
001980 9508      	RET
                 
                 ;OPTIMIZER ADDED SUBROUTINE, CALLED 3 TIMES, CODE SIZE REDUCTION:3 WORDS
                 SUBOPT_0x30:
001981 93e0 01fe 	STS  _sot,R30
001983 e0e0      	LDI  R30,LOW(0)
001984 93e0 01fd 	STS  _des,R30
001986 9508      	RET
                 
                 ;OPTIMIZER ADDED SUBROUTINE, CALLED 5 TIMES, CODE SIZE REDUCTION:5 WORDS
                 SUBOPT_0x31:
001987 93e0 01fc 	STS  _ed,R30
001989 cfbc      	RJMP SUBOPT_0x2A
                 
                 ;OPTIMIZER ADDED SUBROUTINE, CALLED 2 TIMES, CODE SIZE REDUCTION:5 WORDS
                 SUBOPT_0x32:
00198a 940e 0480 	CALL _set_digit_on
00198c e0e0      	LDI  R30,LOW(0)
00198d 93ea      	ST   -Y,R30
00198e 93ea      	ST   -Y,R30
00198f 93ea      	ST   -Y,R30
001990 93ea      	ST   -Y,R30
001991 9508      	RET
                 
                 ;OPTIMIZER ADDED SUBROUTINE, CALLED 6 TIMES, CODE SIZE REDUCTION:17 WORDS
                 SUBOPT_0x33:
                +
001992 e0a0     +LDI R26 , LOW ( 0x447A0000 )
001993 e0b0     +LDI R27 , HIGH ( 0x447A0000 )
001994 e78a     +LDI R24 , BYTE3 ( 0x447A0000 )
001995 e494     +LDI R25 , BYTE4 ( 0x447A0000 )
                 	__GETD2N 0x447A0000
001996 940e 1dd6 	CALL __MULF12
001998 9508      	RET
                 
                 ;OPTIMIZER ADDED SUBROUTINE, CALLED 2 TIMES, CODE SIZE REDUCTION:2 WORDS
                 SUBOPT_0x34:
001999 940e 1e24 	CALL __DIVF21
00199b efaf      	LDI  R26,LOW(_tis)
00199c e0b1      	LDI  R27,HIGH(_tis)
00199d 940e 1d13 	CALL __CFD1U
00199f 93ec      	ST   X,R30
0019a0 9508      	RET
                 
                 ;OPTIMIZER ADDED SUBROUTINE, CALLED 6 TIMES, CODE SIZE REDUCTION:12 WORDS
                 SUBOPT_0x35:
0019a1 940e 1d15 	CALL __CFD1
0019a3 2766      	CLR  R22
0019a4 2777      	CLR  R23
0019a5 01df      	MOVW R26,R30
0019a6 9508      	RET
                 
                 ;OPTIMIZER ADDED SUBROUTINE, CALLED 2 TIMES, CODE SIZE REDUCTION:6 WORDS
                 SUBOPT_0x36:
0019a7 eee8      	LDI  R30,LOW(1000)
0019a8 e0f3      	LDI  R31,HIGH(1000)
0019a9 940e 1ed8 	CALL __MODW21
0019ab 01df      	MOVW R26,R30
0019ac e6e4      	LDI  R30,LOW(100)
0019ad e0f0      	LDI  R31,HIGH(100)
0019ae 940e 1ed3 	CALL __DIVW21
0019b0 93e0 01fe 	STS  _sot,R30
0019b2 9508      	RET
                 
                 ;OPTIMIZER ADDED SUBROUTINE, CALLED 2 TIMES, CODE SIZE REDUCTION:6 WORDS
                 SUBOPT_0x37:
0019b3 e6e4      	LDI  R30,LOW(100)
0019b4 e0f0      	LDI  R31,HIGH(100)
0019b5 940e 1ed8 	CALL __MODW21
0019b7 01df      	MOVW R26,R30
0019b8 e0ea      	LDI  R30,LOW(10)
0019b9 e0f0      	LDI  R31,HIGH(10)
0019ba 940e 1ed3 	CALL __DIVW21
0019bc 93e0 01fd 	STS  _des,R30
0019be 9508      	RET
                 
                 ;OPTIMIZER ADDED SUBROUTINE, CALLED 74 TIMES, CODE SIZE REDUCTION:289 WORDS
                 SUBOPT_0x38:
0019bf e0e0      	LDI  R30,LOW(0)
0019c0 93ea      	ST   -Y,R30
0019c1 93ea      	ST   -Y,R30
0019c2 93ea      	ST   -Y,R30
0019c3 9508      	RET
                 
                 ;OPTIMIZER ADDED SUBROUTINE, CALLED 2 TIMES, CODE SIZE REDUCTION:1 WORDS
                 SUBOPT_0x39:
0019c4 eee8      	LDI  R30,LOW(1000)
0019c5 e0f3      	LDI  R31,HIGH(1000)
0019c6 93fa      	ST   -Y,R31
0019c7 93ea      	ST   -Y,R30
0019c8 940c 1cd4 	JMP  _delay_ms
                 
                 ;OPTIMIZER ADDED SUBROUTINE, CALLED 5 TIMES, CODE SIZE REDUCTION:9 WORDS
                 SUBOPT_0x3A:
0019ca 93e0 01fe 	STS  _sot,R30
0019cc e0e2      	LDI  R30,LOW(2)
0019cd 93e0 01fd 	STS  _des,R30
0019cf 9508      	RET
                 
                 ;OPTIMIZER ADDED SUBROUTINE, CALLED 2 TIMES, CODE SIZE REDUCTION:1 WORDS
                 SUBOPT_0x3B:
0019d0 93e0 01fe 	STS  _sot,R30
0019d2 e2e0      	LDI  R30,LOW(32)
0019d3 93e0 01fd 	STS  _des,R30
0019d5 9508      	RET
                 
                 ;OPTIMIZER ADDED SUBROUTINE, CALLED 6 TIMES, CODE SIZE REDUCTION:7 WORDS
                 SUBOPT_0x3C:
0019d6 93fa      	ST   -Y,R31
0019d7 93ea      	ST   -Y,R30
0019d8 940c 1cd4 	JMP  _delay_ms
                 
                 ;OPTIMIZER ADDED SUBROUTINE, CALLED 7 TIMES, CODE SIZE REDUCTION:9 WORDS
                 SUBOPT_0x3D:
                +
0019da e3a4     +LDI R26 , LOW ( _reg + ( 52 ) )
0019db e0b0     +LDI R27 , HIGH ( _reg + ( 52 ) )
                 	__POINTW2MN _reg,52
0019dc 940e 1f26 	CALL __EEPROMRDD
0019de 9508      	RET
                 
                 ;OPTIMIZER ADDED SUBROUTINE, CALLED 14 TIMES, CODE SIZE REDUCTION:23 WORDS
                 SUBOPT_0x3E:
                +
0019df afea     +STD Y + 58 , R30
0019e0 affb     +STD Y + 58 + 1 , R31
0019e1 af6c     +STD Y + 58 + 2 , R22
0019e2 af7d     +STD Y + 58 + 3 , R23
                 	__PUTD1S 58
0019e3 9508      	RET
                 
                 ;OPTIMIZER ADDED SUBROUTINE, CALLED 43 TIMES, CODE SIZE REDUCTION:81 WORDS
                 SUBOPT_0x3F:
                +
0019e4 adaa     +LDD R26 , Y + 58
0019e5 adbb     +LDD R27 , Y + 58 + 1
0019e6 ad8c     +LDD R24 , Y + 58 + 2
0019e7 ad9d     +LDD R25 , Y + 58 + 3
                 	__GETD2S 58
0019e8 9508      	RET
                 
                 ;OPTIMIZER ADDED SUBROUTINE, CALLED 3 TIMES, CODE SIZE REDUCTION:5 WORDS
                 SUBOPT_0x40:
                +
0019e9 e0e0     +LDI R30 , LOW ( 0xC47A0000 )
0019ea e0f0     +LDI R31 , HIGH ( 0xC47A0000 )
0019eb e76a     +LDI R22 , BYTE3 ( 0xC47A0000 )
0019ec ec74     +LDI R23 , BYTE4 ( 0xC47A0000 )
                 	__GETD1N 0xC47A0000
0019ed 940e 1e69 	CALL __CMPF12
0019ef 9508      	RET
                 
                 ;OPTIMIZER ADDED SUBROUTINE, CALLED 5 TIMES, CODE SIZE REDUCTION:21 WORDS
                 SUBOPT_0x41:
0019f0 dff3      	RCALL SUBOPT_0x3F
                +
0019f1 e0e0     +LDI R30 , LOW ( 0xC2C80000 )
0019f2 e0f0     +LDI R31 , HIGH ( 0xC2C80000 )
0019f3 ec68     +LDI R22 , BYTE3 ( 0xC2C80000 )
0019f4 ec72     +LDI R23 , BYTE4 ( 0xC2C80000 )
                 	__GETD1N 0xC2C80000
0019f5 940e 1e69 	CALL __CMPF12
0019f7 9508      	RET
                 
                 ;OPTIMIZER ADDED SUBROUTINE, CALLED 6 TIMES, CODE SIZE REDUCTION:27 WORDS
                 SUBOPT_0x42:
0019f8 dfeb      	RCALL SUBOPT_0x3F
                +
0019f9 e0e0     +LDI R30 , LOW ( 0xC1200000 )
0019fa e0f0     +LDI R31 , HIGH ( 0xC1200000 )
0019fb e260     +LDI R22 , BYTE3 ( 0xC1200000 )
0019fc ec71     +LDI R23 , BYTE4 ( 0xC1200000 )
                 	__GETD1N 0xC1200000
0019fd 940e 1e69 	CALL __CMPF12
0019ff 9508      	RET
                 
                 ;OPTIMIZER ADDED SUBROUTINE, CALLED 5 TIMES, CODE SIZE REDUCTION:21 WORDS
                 SUBOPT_0x43:
001a00 dfe3      	RCALL SUBOPT_0x3F
                +
001a01 e0e0     +LDI R30 , LOW ( 0x41200000 )
001a02 e0f0     +LDI R31 , HIGH ( 0x41200000 )
001a03 e260     +LDI R22 , BYTE3 ( 0x41200000 )
001a04 e471     +LDI R23 , BYTE4 ( 0x41200000 )
                 	__GETD1N 0x41200000
001a05 940e 1e69 	CALL __CMPF12
001a07 9508      	RET
                 
                 ;OPTIMIZER ADDED SUBROUTINE, CALLED 5 TIMES, CODE SIZE REDUCTION:21 WORDS
                 SUBOPT_0x44:
001a08 dfdb      	RCALL SUBOPT_0x3F
                +
001a09 e0e0     +LDI R30 , LOW ( 0x42C80000 )
001a0a e0f0     +LDI R31 , HIGH ( 0x42C80000 )
001a0b ec68     +LDI R22 , BYTE3 ( 0x42C80000 )
001a0c e472     +LDI R23 , BYTE4 ( 0x42C80000 )
                 	__GETD1N 0x42C80000
001a0d 940e 1e69 	CALL __CMPF12
001a0f 9508      	RET
                 
                 ;OPTIMIZER ADDED SUBROUTINE, CALLED 8 TIMES, CODE SIZE REDUCTION:39 WORDS
                 SUBOPT_0x45:
001a10 dfd3      	RCALL SUBOPT_0x3F
                +
001a11 e0e0     +LDI R30 , LOW ( 0x447A0000 )
001a12 e0f0     +LDI R31 , HIGH ( 0x447A0000 )
001a13 e76a     +LDI R22 , BYTE3 ( 0x447A0000 )
001a14 e474     +LDI R23 , BYTE4 ( 0x447A0000 )
                 	__GETD1N 0x447A0000
001a15 940e 1e69 	CALL __CMPF12
001a17 9508      	RET
                 
                 ;OPTIMIZER ADDED SUBROUTINE, CALLED 4 TIMES, CODE SIZE REDUCTION:3 WORDS
                 SUBOPT_0x46:
001a18 91e0 01fa 	LDS  R30,_point
001a1a 93e0 01fb 	STS  _work_point,R30
001a1c 9508      	RET
                 
                 ;OPTIMIZER ADDED SUBROUTINE, CALLED 24 TIMES, CODE SIZE REDUCTION:43 WORDS
                 SUBOPT_0x47:
001a1d e0e0      	LDI  R30,LOW(0)
001a1e 93ea      	ST   -Y,R30
001a1f 93ea      	ST   -Y,R30
001a20 9508      	RET
                 
                 ;OPTIMIZER ADDED SUBROUTINE, CALLED 24 TIMES, CODE SIZE REDUCTION:43 WORDS
                 SUBOPT_0x48:
001a21 940e 0392 	CALL _set_led_on
001a23 cf9b      	RJMP SUBOPT_0x38
                 
                 ;OPTIMIZER ADDED SUBROUTINE, CALLED 2 TIMES, CODE SIZE REDUCTION:5 WORDS
                 SUBOPT_0x49:
001a24 91a0 0221 	LDS  R26,_start_time
001a26 91b0 0222 	LDS  R27,_start_time+1
001a28 9180 0223 	LDS  R24,_start_time+2
001a2a 9190 0224 	LDS  R25,_start_time+3
001a2c ce93      	RJMP SUBOPT_0x18
                 
                 ;OPTIMIZER ADDED SUBROUTINE, CALLED 2 TIMES, CODE SIZE REDUCTION:1 WORDS
                 SUBOPT_0x4A:
001a2d e2e0      	LDI  R30,LOW(32)
001a2e 93e0 01fc 	STS  _ed,R30
001a30 91e0 021f 	LDS  R30,_count_register
001a32 30e2      	CPI  R30,LOW(0x2)
001a33 9508      	RET
                 
                 ;OPTIMIZER ADDED SUBROUTINE, CALLED 2 TIMES, CODE SIZE REDUCTION:1 WORDS
                 SUBOPT_0x4B:
001a34 93e0 01ff 	STS  _tis,R30
001a36 e5ef      	LDI  R30,LOW(95)
001a37 93e0 01fe 	STS  _sot,R30
001a39 e0e2      	LDI  R30,LOW(2)
001a3a 9508      	RET
                 
                 ;OPTIMIZER ADDED SUBROUTINE, CALLED 2 TIMES, CODE SIZE REDUCTION:2 WORDS
                 SUBOPT_0x4C:
001a3b e7e0      	LDI  R30,LOW(112)
001a3c 93e0 01ff 	STS  _tis,R30
001a3e e5ef      	LDI  R30,LOW(95)
001a3f 93e0 01fe 	STS  _sot,R30
001a41 9508      	RET
                 
                 ;OPTIMIZER ADDED SUBROUTINE, CALLED 2 TIMES, CODE SIZE REDUCTION:2 WORDS
                 SUBOPT_0x4D:
001a42 e6e3      	LDI  R30,LOW(99)
001a43 93e0 01ff 	STS  _tis,R30
001a45 e5ef      	LDI  R30,LOW(95)
001a46 93e0 01fe 	STS  _sot,R30
001a48 9508      	RET
                 
                 ;OPTIMIZER ADDED SUBROUTINE, CALLED 4 TIMES, CODE SIZE REDUCTION:18 WORDS
                 SUBOPT_0x4E:
001a49 91e0 021f 	LDS  R30,_count_register
001a4b e0a0      	LDI  R26,LOW(_reg)
001a4c e0b0      	LDI  R27,HIGH(_reg)
001a4d e0f0      	LDI  R31,0
001a4e 940e 1e9a 	CALL __LSLW2
001a50 9508      	RET
                 
                 ;OPTIMIZER ADDED SUBROUTINE, CALLED 8 TIMES, CODE SIZE REDUCTION:11 WORDS
                 SUBOPT_0x4F:
001a51 0fae      	ADD  R26,R30
001a52 1fbf      	ADC  R27,R31
001a53 940e 1f26 	CALL __EEPROMRDD
001a55 9508      	RET
                 
                 ;OPTIMIZER ADDED SUBROUTINE, CALLED 3 TIMES, CODE SIZE REDUCTION:9 WORDS
                 SUBOPT_0x50:
                +
001a56 adea     +LDD R30 , Y + 58
001a57 adfb     +LDD R31 , Y + 58 + 1
001a58 ad6c     +LDD R22 , Y + 58 + 2
001a59 ad7d     +LDD R23 , Y + 58 + 3
                 	__GETD1S 58
001a5a 940e 1f0f 	CALL __PUTPARD1
001a5c 940c 04d2 	JMP  _hex2dec
                 
                 ;OPTIMIZER ADDED SUBROUTINE, CALLED 5 TIMES, CODE SIZE REDUCTION:13 WORDS
                 SUBOPT_0x51:
001a5e e0e1      	LDI  R30,LOW(1)
001a5f 93ea      	ST   -Y,R30
001a60 e0e0      	LDI  R30,LOW(0)
001a61 93ea      	ST   -Y,R30
001a62 cfbe      	RJMP SUBOPT_0x48
                 
                 ;OPTIMIZER ADDED SUBROUTINE, CALLED 9 TIMES, CODE SIZE REDUCTION:13 WORDS
                 SUBOPT_0x52:
001a63 e0e1      	LDI  R30,LOW(1)
001a64 93ea      	ST   -Y,R30
001a65 cfb7      	RJMP SUBOPT_0x47
                 
                 ;OPTIMIZER ADDED SUBROUTINE, CALLED 5 TIMES, CODE SIZE REDUCTION:5 WORDS
                 SUBOPT_0x53:
001a66 e0e0      	LDI  R30,LOW(0)
001a67 93ea      	ST   -Y,R30
001a68 e0e1      	LDI  R30,LOW(1)
001a69 93ea      	ST   -Y,R30
001a6a 9508      	RET
                 
                 ;OPTIMIZER ADDED SUBROUTINE, CALLED 8 TIMES, CODE SIZE REDUCTION:11 WORDS
                 SUBOPT_0x54:
001a6b e0e0      	LDI  R30,LOW(0)
001a6c 93ea      	ST   -Y,R30
001a6d 940c 040a 	JMP  _set_led_off
                 
                 ;OPTIMIZER ADDED SUBROUTINE, CALLED 3 TIMES, CODE SIZE REDUCTION:13 WORDS
                 SUBOPT_0x55:
001a6f ddcb      	RCALL SUBOPT_0x3
001a70 93e0 0221 	STS  _start_time,R30
001a72 93f0 0222 	STS  _start_time+1,R31
001a74 9360 0223 	STS  _start_time+2,R22
001a76 9370 0224 	STS  _start_time+3,R23
001a78 9508      	RET
                 
                 ;OPTIMIZER ADDED SUBROUTINE, CALLED 5 TIMES, CODE SIZE REDUCTION:29 WORDS
                 SUBOPT_0x56:
                +
001a79 a9ea     +LDD R30 , Y + 50
001a7a a9fb     +LDD R31 , Y + 50 + 1
001a7b a96c     +LDD R22 , Y + 50 + 2
001a7c a97d     +LDD R23 , Y + 50 + 3
                 	__GETD1S 50
                +
001a7d a9ae     +LDD R26 , Y + 54
001a7e a9bf     +LDD R27 , Y + 54 + 1
001a7f ad88     +LDD R24 , Y + 54 + 2
001a80 ad99     +LDD R25 , Y + 54 + 3
                 	__GETD2S 54
001a81 940e 1dd6 	CALL __MULF12
001a83 9508      	RET
                 
                 ;OPTIMIZER ADDED SUBROUTINE, CALLED 2 TIMES, CODE SIZE REDUCTION:7 WORDS
                 SUBOPT_0x57:
                +
001a84 e0a0     +LDI R26 , LOW ( 0x41A00000 )
001a85 e0b0     +LDI R27 , HIGH ( 0x41A00000 )
001a86 ea80     +LDI R24 , BYTE3 ( 0x41A00000 )
001a87 e491     +LDI R25 , BYTE4 ( 0x41A00000 )
                 	__GETD2N 0x41A00000
001a88 940e 1dd6 	CALL __MULF12
001a8a 01df      	MOVW R26,R30
001a8b 01cb      	MOVW R24,R22
                +
001a8c e0e0     +LDI R30 , LOW ( 0x45616000 )
001a8d e6f0     +LDI R31 , HIGH ( 0x45616000 )
001a8e e661     +LDI R22 , BYTE3 ( 0x45616000 )
001a8f e475     +LDI R23 , BYTE4 ( 0x45616000 )
                 	__GETD1N 0x45616000
001a90 9508      	RET
                 
                 ;OPTIMIZER ADDED SUBROUTINE, CALLED 11 TIMES, CODE SIZE REDUCTION:17 WORDS
                 SUBOPT_0x58:
                +
001a91 e3a0     +LDI R26 , LOW ( _reg + ( 48 ) )
001a92 e0b0     +LDI R27 , HIGH ( _reg + ( 48 ) )
                 	__POINTW2MN _reg,48
001a93 940e 1f26 	CALL __EEPROMRDD
001a95 9508      	RET
                 
                 ;OPTIMIZER ADDED SUBROUTINE, CALLED 18 TIMES, CODE SIZE REDUCTION:31 WORDS
                 SUBOPT_0x59:
001a96 940e 1f19 	CALL __SWAPD12
001a98 940e 1d7f 	CALL __SUBF12
001a9a 9508      	RET
                 
                 ;OPTIMIZER ADDED SUBROUTINE, CALLED 5 TIMES, CODE SIZE REDUCTION:21 WORDS
                 SUBOPT_0x5A:
001a9b 940e 1e24 	CALL __DIVF21
                +
001a9d a7ee     +STD Y + 46 , R30
001a9e a7ff     +STD Y + 46 + 1 , R31
001a9f ab68     +STD Y + 46 + 2 , R22
001aa0 ab79     +STD Y + 46 + 3 , R23
                 	__PUTD1S 46
001aa1 cfef      	RJMP SUBOPT_0x58
                 
                 ;OPTIMIZER ADDED SUBROUTINE, CALLED 7 TIMES, CODE SIZE REDUCTION:9 WORDS
                 SUBOPT_0x5B:
                +
001aa2 a5ae     +LDD R26 , Y + 46
001aa3 a5bf     +LDD R27 , Y + 46 + 1
001aa4 a988     +LDD R24 , Y + 46 + 2
001aa5 a999     +LDD R25 , Y + 46 + 3
                 	__GETD2S 46
001aa6 9508      	RET
                 
                 ;OPTIMIZER ADDED SUBROUTINE, CALLED 3 TIMES, CODE SIZE REDUCTION:1 WORDS
                 SUBOPT_0x5C:
                +
001aa7 e0e0     +LDI R30 , LOW ( 0x40800000 )
001aa8 e0f0     +LDI R31 , HIGH ( 0x40800000 )
001aa9 e860     +LDI R22 , BYTE3 ( 0x40800000 )
001aaa e470     +LDI R23 , BYTE4 ( 0x40800000 )
                 	__GETD1N 0x40800000
001aab 9508      	RET
                 
                 ;OPTIMIZER ADDED SUBROUTINE, CALLED 4 TIMES, CODE SIZE REDUCTION:3 WORDS
                 SUBOPT_0x5D:
                +
001aac a7ea     +STD Y + 42 , R30
001aad a7fb     +STD Y + 42 + 1 , R31
001aae a76c     +STD Y + 42 + 2 , R22
001aaf a77d     +STD Y + 42 + 3 , R23
                 	__PUTD1S 42
001ab0 9508      	RET
                 
                 ;OPTIMIZER ADDED SUBROUTINE, CALLED 5 TIMES, CODE SIZE REDUCTION:5 WORDS
                 SUBOPT_0x5E:
                +
001ab1 e0e0     +LDI R30 , LOW ( 0x41A00000 )
001ab2 e0f0     +LDI R31 , HIGH ( 0x41A00000 )
001ab3 ea60     +LDI R22 , BYTE3 ( 0x41A00000 )
001ab4 e471     +LDI R23 , BYTE4 ( 0x41A00000 )
                 	__GETD1N 0x41A00000
001ab5 9508      	RET
                 
                 ;OPTIMIZER ADDED SUBROUTINE, CALLED 2 TIMES, CODE SIZE REDUCTION:3 WORDS
                 SUBOPT_0x5F:
001ab6 01df      	MOVW R26,R30
001ab7 01cb      	MOVW R24,R22
                +
001ab8 e0e0     +LDI R30 , LOW ( 0x40A00000 )
001ab9 e0f0     +LDI R31 , HIGH ( 0x40A00000 )
001aba ea60     +LDI R22 , BYTE3 ( 0x40A00000 )
001abb e470     +LDI R23 , BYTE4 ( 0x40A00000 )
                 	__GETD1N 0x40A00000
001abc cfde      	RJMP SUBOPT_0x5A
                 
                 ;OPTIMIZER ADDED SUBROUTINE, CALLED 4 TIMES, CODE SIZE REDUCTION:15 WORDS
                 SUBOPT_0x60:
001abd dfe4      	RCALL SUBOPT_0x5B
                +
001abe e0e0     +LDI R30 , LOW ( 0x0 )
001abf e0f0     +LDI R31 , HIGH ( 0x0 )
001ac0 e060     +LDI R22 , BYTE3 ( 0x0 )
001ac1 e070     +LDI R23 , BYTE4 ( 0x0 )
                 	__GETD1N 0x0
001ac2 940e 1dd6 	CALL __MULF12
001ac4 9508      	RET
                 
                 ;OPTIMIZER ADDED SUBROUTINE, CALLED 3 TIMES, CODE SIZE REDUCTION:7 WORDS
                 SUBOPT_0x61:
001ac5 dfe6      	RCALL SUBOPT_0x5D
001ac6 e0e0      	LDI  R30,LOW(0)
                +
001ac7 a3ee     +STD Y + 38 , R30
001ac8 a3ef     +STD Y + 38 + 1 , R30
001ac9 a7e8     +STD Y + 38 + 2 , R30
001aca a7e9     +STD Y + 38 + 3 , R30
                 	__CLRD1S 38
001acb 9508      	RET
                 
                 ;OPTIMIZER ADDED SUBROUTINE, CALLED 5 TIMES, CODE SIZE REDUCTION:5 WORDS
                 SUBOPT_0x62:
                +
001acc e0e0     +LDI R30 , LOW ( 0x41200000 )
001acd e0f0     +LDI R31 , HIGH ( 0x41200000 )
001ace e260     +LDI R22 , BYTE3 ( 0x41200000 )
001acf e471     +LDI R23 , BYTE4 ( 0x41200000 )
                 	__GETD1N 0x41200000
001ad0 9508      	RET
                 
                 ;OPTIMIZER ADDED SUBROUTINE, CALLED 2 TIMES, CODE SIZE REDUCTION:3 WORDS
                 SUBOPT_0x63:
001ad1 91a0 022e 	LDS  R26,_adc_value1
001ad3 91b0 022f 	LDS  R27,_adc_value1+1
001ad5 9180 0230 	LDS  R24,_adc_value1+2
001ad7 9190 0231 	LDS  R25,_adc_value1+3
001ad9 9508      	RET
                 
                 ;OPTIMIZER ADDED SUBROUTINE, CALLED 3 TIMES, CODE SIZE REDUCTION:25 WORDS
                 SUBOPT_0x64:
001ada 940e 1dd6 	CALL __MULF12
                +
001adc a5aa     +LDD R26 , Y + 42
001add a5bb     +LDD R27 , Y + 42 + 1
001ade a58c     +LDD R24 , Y + 42 + 2
001adf a59d     +LDD R25 , Y + 42 + 3
                 	__GETD2S 42
001ae0 940e 1d86 	CALL __ADDF12
001ae2 93e0 0232 	STS  _adc_value2,R30
001ae4 93f0 0233 	STS  _adc_value2+1,R31
001ae6 9360 0234 	STS  _adc_value2+2,R22
001ae8 9370 0235 	STS  _adc_value2+3,R23
001aea 9508      	RET
                 
                 ;OPTIMIZER ADDED SUBROUTINE, CALLED 2 TIMES, CODE SIZE REDUCTION:13 WORDS
                 SUBOPT_0x65:
                +
001aeb e3a8     +LDI R26 , LOW ( _reg + ( 56 ) )
001aec e0b0     +LDI R27 , HIGH ( _reg + ( 56 ) )
                 	__POINTW2MN _reg,56
001aed 940e 1f26 	CALL __EEPROMRDD
001aef 01df      	MOVW R26,R30
001af0 01cb      	MOVW R24,R22
                +
001af1 e0e0     +LDI R30 , LOW ( 0x42C80000 )
001af2 e0f0     +LDI R31 , HIGH ( 0x42C80000 )
001af3 ec68     +LDI R22 , BYTE3 ( 0x42C80000 )
001af4 e472     +LDI R23 , BYTE4 ( 0x42C80000 )
                 	__GETD1N 0x42C80000
001af5 940e 1e24 	CALL __DIVF21
                +
001af7 e0a0     +LDI R26 , LOW ( 0x3F800000 )
001af8 e0b0     +LDI R27 , HIGH ( 0x3F800000 )
001af9 e880     +LDI R24 , BYTE3 ( 0x3F800000 )
001afa e39f     +LDI R25 , BYTE4 ( 0x3F800000 )
                 	__GETD2N 0x3F800000
001afb cf9a      	RJMP SUBOPT_0x59
                 
                 ;OPTIMIZER ADDED SUBROUTINE, CALLED 2 TIMES, CODE SIZE REDUCTION:1 WORDS
                 SUBOPT_0x66:
                +
001afc a1ae     +LDD R26 , Y + 38
001afd a1bf     +LDD R27 , Y + 38 + 1
001afe a588     +LDD R24 , Y + 38 + 2
001aff a599     +LDD R25 , Y + 38 + 3
                 	__GETD2S 38
001b00 940e 1dd6 	CALL __MULF12
001b02 9508      	RET
                 
                 ;OPTIMIZER ADDED SUBROUTINE, CALLED 2 TIMES, CODE SIZE REDUCTION:19 WORDS
                 SUBOPT_0x67:
                +
001b03 e3ac     +LDI R26 , LOW ( _reg + ( 60 ) )
001b04 e0b0     +LDI R27 , HIGH ( _reg + ( 60 ) )
                 	__POINTW2MN _reg,60
001b05 940e 1f26 	CALL __EEPROMRDD
001b07 01df      	MOVW R26,R30
001b08 01cb      	MOVW R24,R22
                +
001b09 e0e0     +LDI R30 , LOW ( 0x42C80000 )
001b0a e0f0     +LDI R31 , HIGH ( 0x42C80000 )
001b0b ec68     +LDI R22 , BYTE3 ( 0x42C80000 )
001b0c e472     +LDI R23 , BYTE4 ( 0x42C80000 )
                 	__GETD1N 0x42C80000
001b0d 940e 1e24 	CALL __DIVF21
                +
001b0f e0a0     +LDI R26 , LOW ( 0x3F800000 )
001b10 e0b0     +LDI R27 , HIGH ( 0x3F800000 )
001b11 e880     +LDI R24 , BYTE3 ( 0x3F800000 )
001b12 e39f     +LDI R25 , BYTE4 ( 0x3F800000 )
                 	__GETD2N 0x3F800000
001b13 940e 1d86 	CALL __ADDF12
                +
001b15 a1aa     +LDD R26 , Y + 34
001b16 a1bb     +LDD R27 , Y + 34 + 1
001b17 a18c     +LDD R24 , Y + 34 + 2
001b18 a19d     +LDD R25 , Y + 34 + 3
                 	__GETD2S 34
001b19 940e 1dd6 	CALL __MULF12
001b1b 9508      	RET
                 
                 ;OPTIMIZER ADDED SUBROUTINE, CALLED 5 TIMES, CODE SIZE REDUCTION:29 WORDS
                 SUBOPT_0x68:
001b1c 91a0 0232 	LDS  R26,_adc_value2
001b1e 91b0 0233 	LDS  R27,_adc_value2+1
001b20 9180 0234 	LDS  R24,_adc_value2+2
001b22 9190 0235 	LDS  R25,_adc_value2+3
001b24 940e 1e69 	CALL __CMPF12
001b26 9508      	RET
                 
                 ;OPTIMIZER ADDED SUBROUTINE, CALLED 2 TIMES, CODE SIZE REDUCTION:1 WORDS
                 SUBOPT_0x69:
                +
001b27 8dee     +LDD R30 , Y + 30
001b28 8dff     +LDD R31 , Y + 30 + 1
001b29 a168     +LDD R22 , Y + 30 + 2
001b2a a179     +LDD R23 , Y + 30 + 3
                 	__GETD1S 30
001b2b cff0      	RJMP SUBOPT_0x68
                 
                 ;OPTIMIZER ADDED SUBROUTINE, CALLED 4 TIMES, CODE SIZE REDUCTION:45 WORDS
                 SUBOPT_0x6A:
                +
001b2c e1ac     +LDI R26 , LOW ( _reg + ( 28 ) )
001b2d e0b0     +LDI R27 , HIGH ( _reg + ( 28 ) )
                 	__POINTW2MN _reg,28
001b2e 940e 1f26 	CALL __EEPROMRDD
001b30 01df      	MOVW R26,R30
001b31 01cb      	MOVW R24,R22
                +
001b32 e0e0     +LDI R30 , LOW ( 0x42C80000 )
001b33 e0f0     +LDI R31 , HIGH ( 0x42C80000 )
001b34 ec68     +LDI R22 , BYTE3 ( 0x42C80000 )
001b35 e472     +LDI R23 , BYTE4 ( 0x42C80000 )
                 	__GETD1N 0x42C80000
001b36 940e 1e24 	CALL __DIVF21
                +
001b38 e0a0     +LDI R26 , LOW ( 0x3F800000 )
001b39 e0b0     +LDI R27 , HIGH ( 0x3F800000 )
001b3a e880     +LDI R24 , BYTE3 ( 0x3F800000 )
001b3b e39f     +LDI R25 , BYTE4 ( 0x3F800000 )
                 	__GETD2N 0x3F800000
001b3c cf59      	RJMP SUBOPT_0x59
                 
                 ;OPTIMIZER ADDED SUBROUTINE, CALLED 2 TIMES, CODE SIZE REDUCTION:5 WORDS
                 SUBOPT_0x6B:
001b3d 94e8      	CLT
001b3e f844      	BLD  R4,4
001b3f f8f0      	BLD  R15,0
                +
001b40 e1a4     +LDI R26 , LOW ( _reg + ( 20 ) )
001b41 e0b0     +LDI R27 , HIGH ( _reg + ( 20 ) )
                 	__POINTW2MN _reg,20
001b42 940e 1f26 	CALL __EEPROMRDD
001b44 940e 1f5b 	CALL __CPD10
001b46 9508      	RET
                 
                 ;OPTIMIZER ADDED SUBROUTINE, CALLED 11 TIMES, CODE SIZE REDUCTION:47 WORDS
                 SUBOPT_0x6C:
                +
001b47 30e0     +CPI R30 , LOW ( 0x3F800000 )
001b48 e0a0     +LDI R26 , HIGH ( 0x3F800000 )
001b49 07fa     +CPC R31 , R26
001b4a e8a0     +LDI R26 , BYTE3 ( 0x3F800000 )
001b4b 076a     +CPC R22 , R26
001b4c e3af     +LDI R26 , BYTE4 ( 0x3F800000 )
001b4d 077a     +CPC R23 , R26
                 	__CPD1N 0x3F800000
001b4e 9508      	RET
                 
                 ;OPTIMIZER ADDED SUBROUTINE, CALLED 4 TIMES, CODE SIZE REDUCTION:9 WORDS
                 SUBOPT_0x6D:
                +
001b4f e5a0     +LDI R26 , LOW ( _reg + ( 80 ) )
001b50 e0b0     +LDI R27 , HIGH ( _reg + ( 80 ) )
                 	__POINTW2MN _reg,80
001b51 940e 1f26 	CALL __EEPROMRDD
001b53 940e 1f5b 	CALL __CPD10
001b55 9508      	RET
                 
                 ;OPTIMIZER ADDED SUBROUTINE, CALLED 2 TIMES, CODE SIZE REDUCTION:1 WORDS
                 SUBOPT_0x6E:
                +
001b56 8dea     +LDD R30 , Y + 26
001b57 8dfb     +LDD R31 , Y + 26 + 1
001b58 8d6c     +LDD R22 , Y + 26 + 2
001b59 8d7d     +LDD R23 , Y + 26 + 3
                 	__GETD1S 26
001b5a cfc1      	RJMP SUBOPT_0x68
                 
                 ;OPTIMIZER ADDED SUBROUTINE, CALLED 2 TIMES, CODE SIZE REDUCTION:5 WORDS
                 SUBOPT_0x6F:
001b5b 94e8      	CLT
001b5c f845      	BLD  R4,5
001b5d f8f1      	BLD  R15,1
                +
001b5e e1a4     +LDI R26 , LOW ( _reg + ( 20 ) )
001b5f e0b0     +LDI R27 , HIGH ( _reg + ( 20 ) )
                 	__POINTW2MN _reg,20
001b60 940e 1f26 	CALL __EEPROMRDD
001b62 940e 1f5b 	CALL __CPD10
001b64 9508      	RET
                 
                 ;OPTIMIZER ADDED SUBROUTINE, CALLED 4 TIMES, CODE SIZE REDUCTION:9 WORDS
                 SUBOPT_0x70:
                +
001b65 e5a4     +LDI R26 , LOW ( _reg + ( 84 ) )
001b66 e0b0     +LDI R27 , HIGH ( _reg + ( 84 ) )
                 	__POINTW2MN _reg,84
001b67 940e 1f26 	CALL __EEPROMRDD
001b69 940e 1f5b 	CALL __CPD10
001b6b 9508      	RET
                 
                 ;OPTIMIZER ADDED SUBROUTINE, CALLED 2 TIMES, CODE SIZE REDUCTION:7 WORDS
                 SUBOPT_0x71:
001b6c 91a0 01eb 	LDS  R26,_sys_time
001b6e 91b0 01ec 	LDS  R27,_sys_time+1
001b70 9180 01ed 	LDS  R24,_sys_time+2
001b72 9190 01ee 	LDS  R25,_sys_time+3
001b74 940e 1f16 	CALL __CDF2
001b76 cf1f      	RJMP SUBOPT_0x59
                 
                 ;OPTIMIZER ADDED SUBROUTINE, CALLED 2 TIMES, CODE SIZE REDUCTION:3 WORDS
                 SUBOPT_0x72:
001b77 940e 1f26 	CALL __EEPROMRDD
                +
001b79 e0a0     +LDI R26 , LOW ( 0x44480000 )
001b7a e0b0     +LDI R27 , HIGH ( 0x44480000 )
001b7b e488     +LDI R24 , BYTE3 ( 0x44480000 )
001b7c e494     +LDI R25 , BYTE4 ( 0x44480000 )
                 	__GETD2N 0x44480000
001b7d 940e 1dd6 	CALL __MULF12
001b7f 9508      	RET
                 
                 ;OPTIMIZER ADDED SUBROUTINE, CALLED 4 TIMES, CODE SIZE REDUCTION:3 WORDS
                 SUBOPT_0x73:
                +
001b80 e1a8     +LDI R26 , LOW ( _reg + ( 24 ) )
001b81 e0b0     +LDI R27 , HIGH ( _reg + ( 24 ) )
                 	__POINTW2MN _reg,24
001b82 940e 1f26 	CALL __EEPROMRDD
001b84 9508      	RET
                 
                 ;OPTIMIZER ADDED SUBROUTINE, CALLED 3 TIMES, CODE SIZE REDUCTION:1 WORDS
                 SUBOPT_0x74:
                +
001b85 e2a0     +LDI R26 , LOW ( _reg + ( 32 ) )
001b86 e0b0     +LDI R27 , HIGH ( _reg + ( 32 ) )
                 	__POINTW2MN _reg,32
001b87 940e 1f26 	CALL __EEPROMRDD
001b89 9508      	RET
                 
                 ;OPTIMIZER ADDED SUBROUTINE, CALLED 2 TIMES, CODE SIZE REDUCTION:1 WORDS
                 SUBOPT_0x75:
                +
001b8a e1a4     +LDI R26 , LOW ( _reg + ( 20 ) )
001b8b e0b0     +LDI R27 , HIGH ( _reg + ( 20 ) )
                 	__POINTW2MN _reg,20
001b8c 940e 1f26 	CALL __EEPROMRDD
001b8e 940e 1f5b 	CALL __CPD10
001b90 9508      	RET
                 
                 ;OPTIMIZER ADDED SUBROUTINE, CALLED 2 TIMES, CODE SIZE REDUCTION:2 WORDS
                 SUBOPT_0x76:
                +
001b91 30e0     +CPI R30 , LOW ( 0x40000000 )
001b92 e0a0     +LDI R26 , HIGH ( 0x40000000 )
001b93 07fa     +CPC R31 , R26
001b94 e0a0     +LDI R26 , BYTE3 ( 0x40000000 )
001b95 076a     +CPC R22 , R26
001b96 e4a0     +LDI R26 , BYTE4 ( 0x40000000 )
001b97 077a     +CPC R23 , R26
                 	__CPD1N 0x40000000
001b98 9508      	RET
                 
                 ;OPTIMIZER ADDED SUBROUTINE, CALLED 2 TIMES, CODE SIZE REDUCTION:5 WORDS
                 SUBOPT_0x77:
001b99 91a0 01ef 	LDS  R26,_whait_time
001b9b 91b0 01f0 	LDS  R27,_whait_time+1
001b9d 9180 01f1 	LDS  R24,_whait_time+2
001b9f 9190 01f2 	LDS  R25,_whait_time+3
001ba1 cd1e      	RJMP SUBOPT_0x18
                 
                 ;OPTIMIZER ADDED SUBROUTINE, CALLED 2 TIMES, CODE SIZE REDUCTION:2 WORDS
                 SUBOPT_0x78:
                +
001ba2 3ded     +CPI R30 , LOW ( 0x5DD )
001ba3 e0a5     +LDI R26 , HIGH ( 0x5DD )
001ba4 07fa     +CPC R31 , R26
001ba5 e0a0     +LDI R26 , BYTE3 ( 0x5DD )
001ba6 076a     +CPC R22 , R26
001ba7 e0a0     +LDI R26 , BYTE4 ( 0x5DD )
001ba8 077a     +CPC R23 , R26
                 	__CPD1N 0x5DD
001ba9 9508      	RET
                 
                 ;OPTIMIZER ADDED SUBROUTINE, CALLED 6 TIMES, CODE SIZE REDUCTION:37 WORDS
                 SUBOPT_0x79:
001baa dc90      	RCALL SUBOPT_0x3
001bab 93e0 0225 	STS  _start_time_mode,R30
001bad 93f0 0226 	STS  _start_time_mode+1,R31
001baf 9360 0227 	STS  _start_time_mode+2,R22
001bb1 9370 0228 	STS  _start_time_mode+3,R23
001bb3 9508      	RET
                 
                 ;OPTIMIZER ADDED SUBROUTINE, CALLED 4 TIMES, CODE SIZE REDUCTION:3 WORDS
                 SUBOPT_0x7A:
                +
001bb4 e2ac     +LDI R26 , LOW ( _reg + ( 44 ) )
001bb5 e0b0     +LDI R27 , HIGH ( _reg + ( 44 ) )
                 	__POINTW2MN _reg,44
001bb6 940e 1f26 	CALL __EEPROMRDD
001bb8 9508      	RET
                 
                 ;OPTIMIZER ADDED SUBROUTINE, CALLED 3 TIMES, CODE SIZE REDUCTION:9 WORDS
                 SUBOPT_0x7B:
001bb9 91e0 022e 	LDS  R30,_adc_value1
001bbb 91f0 022f 	LDS  R31,_adc_value1+1
001bbd 9160 0230 	LDS  R22,_adc_value1+2
001bbf 9170 0231 	LDS  R23,_adc_value1+3
001bc1 9508      	RET
                 
                 ;OPTIMIZER ADDED SUBROUTINE, CALLED 3 TIMES, CODE SIZE REDUCTION:9 WORDS
                 SUBOPT_0x7C:
001bc2 91e0 0232 	LDS  R30,_adc_value2
001bc4 91f0 0233 	LDS  R31,_adc_value2+1
001bc6 9160 0234 	LDS  R22,_adc_value2+2
001bc8 9170 0235 	LDS  R23,_adc_value2+3
001bca 9508      	RET
                 
                 ;OPTIMIZER ADDED SUBROUTINE, CALLED 2 TIMES, CODE SIZE REDUCTION:10 WORDS
                 SUBOPT_0x7D:
001bcb 91e0 0236 	LDS  R30,_adc_value3
001bcd 91f0 0237 	LDS  R31,_adc_value3+1
001bcf 9160 0238 	LDS  R22,_adc_value3+2
001bd1 9170 0239 	LDS  R23,_adc_value3+3
001bd3 940e 1f0f 	CALL __PUTPARD1
001bd5 940e 04d2 	CALL _hex2dec
001bd7 91a0 01fa 	LDS  R26,_point
001bd9 30a1      	CPI  R26,LOW(0x1)
001bda 9508      	RET
                 
                 ;OPTIMIZER ADDED SUBROUTINE, CALLED 8 TIMES, CODE SIZE REDUCTION:11 WORDS
                 SUBOPT_0x7E:
001bdb e0e1      	LDI  R30,LOW(1)
001bdc 93ea      	ST   -Y,R30
001bdd cde1      	RJMP SUBOPT_0x38
                 
                 ;OPTIMIZER ADDED SUBROUTINE, CALLED 4 TIMES, CODE SIZE REDUCTION:3 WORDS
                 SUBOPT_0x7F:
001bde e0e0      	LDI  R30,LOW(0)
001bdf 93ea      	ST   -Y,R30
001be0 ce40      	RJMP SUBOPT_0x48
                 
                 ;OPTIMIZER ADDED SUBROUTINE, CALLED 4 TIMES, CODE SIZE REDUCTION:3 WORDS
                 SUBOPT_0x80:
001be1 e0e1      	LDI  R30,LOW(1)
001be2 93ea      	ST   -Y,R30
001be3 e0e0      	LDI  R30,LOW(0)
001be4 93ea      	ST   -Y,R30
001be5 9508      	RET
                 
                 ;OPTIMIZER ADDED SUBROUTINE, CALLED 2 TIMES, CODE SIZE REDUCTION:1 WORDS
                 SUBOPT_0x81:
001be6 e0e1      	LDI  R30,LOW(1)
001be7 93ea      	ST   -Y,R30
001be8 93ea      	ST   -Y,R30
001be9 cdd5      	RJMP SUBOPT_0x38
                 
                 ;OPTIMIZER ADDED SUBROUTINE, CALLED 2 TIMES, CODE SIZE REDUCTION:4 WORDS
                 SUBOPT_0x82:
001bea 27ff      	CLR  R31
001beb 2766      	CLR  R22
001bec 2777      	CLR  R23
001bed 940e 1d4c 	CALL __CDF1
001bef 940e 1f0f 	CALL __PUTPARD1
001bf1 940c 04d2 	JMP  _hex2dec
                 
                 ;OPTIMIZER ADDED SUBROUTINE, CALLED 3 TIMES, CODE SIZE REDUCTION:1 WORDS
                 SUBOPT_0x83:
001bf3 93e0 01fd 	STS  _des,R30
001bf5 ce27      	RJMP SUBOPT_0x47
                 
                 ;OPTIMIZER ADDED SUBROUTINE, CALLED 11 TIMES, CODE SIZE REDUCTION:17 WORDS
                 SUBOPT_0x84:
                +
001bf6 adea     +LDD R30 , Y + 58
001bf7 adfb     +LDD R31 , Y + 58 + 1
001bf8 ad6c     +LDD R22 , Y + 58 + 2
001bf9 ad7d     +LDD R23 , Y + 58 + 3
                 	__GETD1S 58
001bfa 9508      	RET
                 
                 ;OPTIMIZER ADDED SUBROUTINE, CALLED 3 TIMES, CODE SIZE REDUCTION:3 WORDS
                 SUBOPT_0x85:
001bfb 940e 1eaf 	CALL __EQB12
001bfd 2e0e      	MOV  R0,R30
001bfe 91a0 021f 	LDS  R26,_count_register
001c00 9508      	RET
                 
                 ;OPTIMIZER ADDED SUBROUTINE, CALLED 3 TIMES, CODE SIZE REDUCTION:3 WORDS
                 SUBOPT_0x86:
001c01 940e 1eaf 	CALL __EQB12
001c03 2a0e      	OR   R0,R30
001c04 91a0 021f 	LDS  R26,_count_register
001c06 9508      	RET
                 
                 ;OPTIMIZER ADDED SUBROUTINE, CALLED 3 TIMES, CODE SIZE REDUCTION:1 WORDS
                 SUBOPT_0x87:
001c07 e0e0      	LDI  R30,LOW(0)
001c08 93e0 01fc 	STS  _ed,R30
001c0a e0e1      	LDI  R30,LOW(1)
001c0b 9508      	RET
                 
                 ;OPTIMIZER ADDED SUBROUTINE, CALLED 4 TIMES, CODE SIZE REDUCTION:3 WORDS
                 SUBOPT_0x88:
001c0c e0e0      	LDI  R30,LOW(0)
001c0d 93e0 01ff 	STS  _tis,R30
001c0f e2ed      	LDI  R30,LOW(45)
001c10 9508      	RET
                 
                 ;OPTIMIZER ADDED SUBROUTINE, CALLED 4 TIMES, CODE SIZE REDUCTION:21 WORDS
                 SUBOPT_0x89:
                +
001c11 e6a4     +LDI R26 , LOW ( _reg + ( 100 ) )
001c12 e0b0     +LDI R27 , HIGH ( _reg + ( 100 ) )
                 	__POINTW2MN _reg,100
001c13 940e 1f26 	CALL __EEPROMRDD
                +
001c15 e0a0     +LDI R26 , LOW ( 0x42C80000 )
001c16 e0b0     +LDI R27 , HIGH ( 0x42C80000 )
001c17 ec88     +LDI R24 , BYTE3 ( 0x42C80000 )
001c18 e492     +LDI R25 , BYTE4 ( 0x42C80000 )
                 	__GETD2N 0x42C80000
001c19 940e 1dd6 	CALL __MULF12
001c1b 9508      	RET
                 
                 ;OPTIMIZER ADDED SUBROUTINE, CALLED 2 TIMES, CODE SIZE REDUCTION:4 WORDS
                 SUBOPT_0x8A:
001c1c 940e 1f3a 	CALL __EEPROMWRD
                +
001c1e e3a4     +LDI R26 , LOW ( _reg + ( 52 ) )
001c1f e0b0     +LDI R27 , HIGH ( _reg + ( 52 ) )
                 	__POINTW2MN _reg,52
001c20 de90      	RCALL SUBOPT_0x5E
001c21 940e 1f3a 	CALL __EEPROMWRD
001c23 e0e3      	LDI  R30,LOW(3)
001c24 9508      	RET
                 
                 ;OPTIMIZER ADDED SUBROUTINE, CALLED 2 TIMES, CODE SIZE REDUCTION:1 WORDS
                 SUBOPT_0x8B:
                +
001c25 e3a0     +LDI R26 , LOW ( _reg + ( 48 ) )
001c26 e0b0     +LDI R27 , HIGH ( _reg + ( 48 ) )
                 	__POINTW2MN _reg,48
                +
001c27 e0e0     +LDI R30 , LOW ( 0x0 )
001c28 e0f0     +LDI R31 , HIGH ( 0x0 )
001c29 e060     +LDI R22 , BYTE3 ( 0x0 )
001c2a e070     +LDI R23 , BYTE4 ( 0x0 )
                 	__GETD1N 0x0
001c2b 9508      	RET
                 
                 ;OPTIMIZER ADDED SUBROUTINE, CALLED 2 TIMES, CODE SIZE REDUCTION:3 WORDS
                 SUBOPT_0x8C:
001c2c 91e0 01fa 	LDS  R30,_point
001c2e eba0      	LDI  R26,LOW(_ee_point)
001c2f e0b1      	LDI  R27,HIGH(_ee_point)
001c30 940e 1f4a 	CALL __EEPROMWRB
001c32 cde5      	RJMP SUBOPT_0x46
                 
                 ;OPTIMIZER ADDED SUBROUTINE, CALLED 2 TIMES, CODE SIZE REDUCTION:1 WORDS
                 SUBOPT_0x8D:
001c33 dfc2      	RCALL SUBOPT_0x84
                +
001c34 e0a0     +LDI R26 , LOW ( 0x3F800000 )
001c35 e0b0     +LDI R27 , HIGH ( 0x3F800000 )
001c36 e880     +LDI R24 , BYTE3 ( 0x3F800000 )
001c37 e39f     +LDI R25 , BYTE4 ( 0x3F800000 )
                 	__GETD2N 0x3F800000
001c38 9508      	RET
                 
                 ;OPTIMIZER ADDED SUBROUTINE, CALLED 4 TIMES, CODE SIZE REDUCTION:3 WORDS
                 SUBOPT_0x8E:
001c39 940e 1d86 	CALL __ADDF12
001c3b cda3      	RJMP SUBOPT_0x3E
                 
                 ;OPTIMIZER ADDED SUBROUTINE, CALLED 2 TIMES, CODE SIZE REDUCTION:1 WORDS
                 SUBOPT_0x8F:
001c3c dfb9      	RCALL SUBOPT_0x84
                +
001c3d ecad     +LDI R26 , LOW ( 0x3DCCCCCD )
001c3e ecbc     +LDI R27 , HIGH ( 0x3DCCCCCD )
001c3f ec8c     +LDI R24 , BYTE3 ( 0x3DCCCCCD )
001c40 e39d     +LDI R25 , BYTE4 ( 0x3DCCCCCD )
                 	__GETD2N 0x3DCCCCCD
001c41 9508      	RET
                 
                 ;OPTIMIZER ADDED SUBROUTINE, CALLED 6 TIMES, CODE SIZE REDUCTION:7 WORDS
                 SUBOPT_0x90:
001c42 dda1      	RCALL SUBOPT_0x3F
001c43 940e 1f5f 	CALL __CPD02
001c45 9508      	RET
                 
                 ;OPTIMIZER ADDED SUBROUTINE, CALLED 2 TIMES, CODE SIZE REDUCTION:1 WORDS
                 SUBOPT_0x91:
001c46 dfaf      	RCALL SUBOPT_0x84
                +
001c47 e0aa     +LDI R26 , LOW ( 0x3C23D70A )
001c48 edb7     +LDI R27 , HIGH ( 0x3C23D70A )
001c49 e283     +LDI R24 , BYTE3 ( 0x3C23D70A )
001c4a e39c     +LDI R25 , BYTE4 ( 0x3C23D70A )
                 	__GETD2N 0x3C23D70A
001c4b 9508      	RET
                 
                 ;OPTIMIZER ADDED SUBROUTINE, CALLED 2 TIMES, CODE SIZE REDUCTION:6 WORDS
                 SUBOPT_0x92:
                +
001c4c eda8     +LDI R26 , LOW ( _reg + ( 216 ) )
001c4d e0b0     +LDI R27 , HIGH ( _reg + ( 216 ) )
                 	__POINTW2MN _reg,216
001c4e 91e0 021f 	LDS  R30,_count_register
001c50 e0f0      	LDI  R31,0
001c51 940e 1e9a 	CALL __LSLW2
001c53 cdfd      	RJMP SUBOPT_0x4F
                 
                 ;OPTIMIZER ADDED SUBROUTINE, CALLED 2 TIMES, CODE SIZE REDUCTION:4 WORDS
                 SUBOPT_0x93:
001c54 e0e0      	LDI  R30,LOW(0)
001c55 93e0 0201 	STS  _count_key,R30
001c57 93e0 0202 	STS  _count_key1,R30
001c59 93e0 0220 	STS  _count_key2,R30
001c5b 9508      	RET
                 
                 ;OPTIMIZER ADDED SUBROUTINE, CALLED 3 TIMES, CODE SIZE REDUCTION:5 WORDS
                 SUBOPT_0x94:
001c5c 940e 1d7f 	CALL __SUBF12
001c5e dd80      	RCALL SUBOPT_0x3E
001c5f cfe2      	RJMP SUBOPT_0x90
                 
                 ;OPTIMIZER ADDED SUBROUTINE, CALLED 2 TIMES, CODE SIZE REDUCTION:6 WORDS
                 SUBOPT_0x95:
                +
001c60 e4a4     +LDI R26 , LOW ( _reg + ( 324 ) )
001c61 e0b1     +LDI R27 , HIGH ( _reg + ( 324 ) )
                 	__POINTW2MN _reg,324
001c62 91e0 021f 	LDS  R30,_count_register
001c64 e0f0      	LDI  R31,0
001c65 940e 1e9a 	CALL __LSLW2
001c67 cde9      	RJMP SUBOPT_0x4F
                 
                 ;OPTIMIZER ADDED SUBROUTINE, CALLED 2 TIMES, CODE SIZE REDUCTION:3 WORDS
                 SUBOPT_0x96:
001c68 e2e0      	LDI  R30,LOW(32)
001c69 93ea      	ST   -Y,R30
001c6a e0e3      	LDI  R30,LOW(3)
001c6b 93ea      	ST   -Y,R30
001c6c e6e1      	LDI  R30,LOW(97)
001c6d 93ea      	ST   -Y,R30
001c6e eeef      	LDI  R30,LOW(239)
001c6f 93ea      	ST   -Y,R30
001c70 9508      	RET
                 
                 ;OPTIMIZER ADDED SUBROUTINE, CALLED 2 TIMES, CODE SIZE REDUCTION:2 WORDS
                 SUBOPT_0x97:
001c71 e2e0      	LDI  R30,LOW(32)
001c72 93ea      	ST   -Y,R30
001c73 93ea      	ST   -Y,R30
001c74 93ea      	ST   -Y,R30
001c75 9508      	RET
                 
                 ;OPTIMIZER ADDED SUBROUTINE, CALLED 3 TIMES, CODE SIZE REDUCTION:1 WORDS
                 SUBOPT_0x98:
001c76 e0e2      	LDI  R30,LOW(2)
001c77 93ea      	ST   -Y,R30
001c78 940c 1673 	JMP  _response_m_err
                 
                 ;OPTIMIZER ADDED SUBROUTINE, CALLED 3 TIMES, CODE SIZE REDUCTION:1 WORDS
                 SUBOPT_0x99:
001c7a e0e3      	LDI  R30,LOW(3)
001c7b 93ea      	ST   -Y,R30
001c7c 940c 1673 	JMP  _response_m_err
                 
                 ;OPTIMIZER ADDED SUBROUTINE, CALLED 31 TIMES, CODE SIZE REDUCTION:57 WORDS
                 SUBOPT_0x9A:
001c7e 940e 1f05 	CALL __PUTD1S0
001c80 9508      	RET
                 
                 ;OPTIMIZER ADDED SUBROUTINE, CALLED 10 TIMES, CODE SIZE REDUCTION:15 WORDS
                 SUBOPT_0x9B:
001c81 940e 1f00 	CALL __GETD1S0
001c83 9508      	RET
                 
                 ;OPTIMIZER ADDED SUBROUTINE, CALLED 18 TIMES, CODE SIZE REDUCTION:31 WORDS
                 SUBOPT_0x9C:
001c84 940e 1f26 	CALL __EEPROMRDD
001c86 cff7      	RJMP SUBOPT_0x9A
                 
                 ;OPTIMIZER ADDED SUBROUTINE, CALLED 3 TIMES, CODE SIZE REDUCTION:13 WORDS
                 SUBOPT_0x9D:
001c87 91e0 0160 	LDS  R30,_rx_buffer
001c89 93ea      	ST   -Y,R30
001c8a 940e 16be 	CALL _mov_buf_mod
                +
001c8c 91e0 0161+LDS R30 , _rx_buffer + ( 1 )
                 	__GETB1MN _rx_buffer,1
001c8e 93ea      	ST   -Y,R30
001c8f 940c 16be 	JMP  _mov_buf_mod
                 
                 ;OPTIMIZER ADDED SUBROUTINE, CALLED 3 TIMES, CODE SIZE REDUCTION:3 WORDS
                 SUBOPT_0x9E:
001c91 93ea      	ST   -Y,R30
001c92 940e 16be 	CALL _mov_buf_mod
001c94 940c 16d4 	JMP  _crc_end
                 
                 ;OPTIMIZER ADDED SUBROUTINE, CALLED 2 TIMES, CODE SIZE REDUCTION:2 WORDS
                 SUBOPT_0x9F:
001c96 27ee      	CLR  R30
001c97 0fa1      	ADD  R26,R17
001c98 1fbe      	ADC  R27,R30
001c99 91ec      	LD   R30,X
001c9a 93ea      	ST   -Y,R30
001c9b 940c 16be 	JMP  _mov_buf_mod
                 
                 ;OPTIMIZER ADDED SUBROUTINE, CALLED 3 TIMES, CODE SIZE REDUCTION:1 WORDS
                 SUBOPT_0xA0:
001c9d 93e0 01f7 	STS  _crc,R30
001c9f 93f0 01f8 	STS  _crc+1,R31
001ca1 9508      	RET
                 
                 ;OPTIMIZER ADDED SUBROUTINE, CALLED 2 TIMES, CODE SIZE REDUCTION:6 WORDS
                 SUBOPT_0xA1:
001ca2 dbe6      	RCALL SUBOPT_0x10
001ca3 95f5      	ASR  R31
001ca4 95e7      	ROR  R30
001ca5 dff7      	RCALL SUBOPT_0xA0
                +
001ca6 91e0 01f8+LDS R30 , _crc + ( 1 )
001ca8 77ef     +ANDI R30 , LOW ( 127 )
001ca9 93e0 01f8+STS _crc + ( 1 ) , R30
                 	__ANDBMNN _crc,1,127
001cab 9508      	RET
                 
                 ;OPTIMIZER ADDED SUBROUTINE, CALLED 3 TIMES, CODE SIZE REDUCTION:1 WORDS
                 SUBOPT_0xA2:
001cac 81ee      	LDD  R30,Y+6
001cad 81ff      	LDD  R31,Y+6+1
001cae 93fa      	ST   -Y,R31
001caf 93ea      	ST   -Y,R30
001cb0 9508      	RET
                 
                 ;OPTIMIZER ADDED SUBROUTINE, CALLED 3 TIMES, CODE SIZE REDUCTION:1 WORDS
                 SUBOPT_0xA3:
001cb1 93fa      	ST   -Y,R31
001cb2 93ea      	ST   -Y,R30
001cb3 940c 181e 	JMP  _strcpyf
                 
                 ;OPTIMIZER ADDED SUBROUTINE, CALLED 5 TIMES, CODE SIZE REDUCTION:5 WORDS
                 SUBOPT_0xA4:
                +
001cb5 87e9     +STD Y + 9 , R30
001cb6 87fa     +STD Y + 9 + 1 , R31
001cb7 876b     +STD Y + 9 + 2 , R22
001cb8 877c     +STD Y + 9 + 3 , R23
                 	__PUTD1S 9
001cb9 9508      	RET
                 
                 ;OPTIMIZER ADDED SUBROUTINE, CALLED 5 TIMES, CODE SIZE REDUCTION:13 WORDS
                 SUBOPT_0xA5:
001cba 81ae      	LDD  R26,Y+6
001cbb 81bf      	LDD  R27,Y+6+1
001cbc 9611      	ADIW R26,1
001cbd 83ae      	STD  Y+6,R26
001cbe 83bf      	STD  Y+6+1,R27
001cbf 9711      	SBIW R26,1
001cc0 9508      	RET
                 
                 ;OPTIMIZER ADDED SUBROUTINE, CALLED 2 TIMES, CODE SIZE REDUCTION:3 WORDS
                 SUBOPT_0xA6:
001cc1 dc43      	RCALL SUBOPT_0x21
                +
001cc2 eced     +LDI R30 , LOW ( 0x3DCCCCCD )
001cc3 ecfc     +LDI R31 , HIGH ( 0x3DCCCCCD )
001cc4 ec6c     +LDI R22 , BYTE3 ( 0x3DCCCCCD )
001cc5 e37d     +LDI R23 , BYTE4 ( 0x3DCCCCCD )
                 	__GETD1N 0x3DCCCCCD
001cc6 940e 1dd6 	CALL __MULF12
001cc8 9508      	RET
                 
                 ;OPTIMIZER ADDED SUBROUTINE, CALLED 3 TIMES, CODE SIZE REDUCTION:5 WORDS
                 SUBOPT_0xA7:
001cc9 dc2c      	RCALL SUBOPT_0x1E
                +
001cca 85a9     +LDD R26 , Y + 9
001ccb 85ba     +LDD R27 , Y + 9 + 1
001ccc 858b     +LDD R24 , Y + 9 + 2
001ccd 859c     +LDD R25 , Y + 9 + 3
                 	__GETD2S 9
001cce 9508      	RET
                 
                 ;OPTIMIZER ADDED SUBROUTINE, CALLED 3 TIMES, CODE SIZE REDUCTION:1 WORDS
                 SUBOPT_0xA8:
                +
001ccf 85a9     +LDD R26 , Y + 9
001cd0 85ba     +LDD R27 , Y + 9 + 1
001cd1 858b     +LDD R24 , Y + 9 + 2
001cd2 859c     +LDD R25 , Y + 9 + 3
                 	__GETD2S 9
001cd3 9508      	RET
                 
                 
                 	.CSEG
                 _delay_ms:
001cd4 91e9      	ld   r30,y+
001cd5 91f9      	ld   r31,y+
001cd6 9630      	adiw r30,0
001cd7 f039      	breq __delay_ms1
                 __delay_ms0:
                +
001cd8 ed80     +LDI R24 , LOW ( 0x7D0 )
001cd9 e097     +LDI R25 , HIGH ( 0x7D0 )
                +__DELAY_USW_LOOP :
001cda 9701     +SBIW R24 , 1
001cdb f7f1     +BRNE __DELAY_USW_LOOP
                 	__DELAY_USW 0x7D0
001cdc 95a8      	wdr
001cdd 9731      	sbiw r30,1
001cde f7c9      	brne __delay_ms0
                 __delay_ms1:
001cdf 9508      	ret
                 
                 __ANEGF1:
001ce0 9730      	SBIW R30,0
001ce1 4060      	SBCI R22,0
001ce2 4070      	SBCI R23,0
001ce3 f009      	BREQ __ANEGF10
001ce4 5870      	SUBI R23,0x80
                 __ANEGF10:
001ce5 9508      	RET
                 
                 __ROUND_REPACK:
001ce6 2355      	TST  R21
001ce7 f442      	BRPL __REPACK
001ce8 3850      	CPI  R21,0x80
001ce9 f411      	BRNE __ROUND_REPACK0
001cea ffe0      	SBRS R30,0
001ceb c004      	RJMP __REPACK
                 __ROUND_REPACK0:
001cec 9631      	ADIW R30,1
001ced 1f69      	ADC  R22,R25
001cee 1f79      	ADC  R23,R25
001cef f06b      	BRVS __REPACK1
                 
                 __REPACK:
001cf0 e850      	LDI  R21,0x80
001cf1 2757      	EOR  R21,R23
001cf2 f411      	BRNE __REPACK0
001cf3 935f      	PUSH R21
001cf4 c0cf      	RJMP __ZERORES
                 __REPACK0:
001cf5 3f5f      	CPI  R21,0xFF
001cf6 f031      	BREQ __REPACK1
001cf7 0f66      	LSL  R22
001cf8 0c00      	LSL  R0
001cf9 9557      	ROR  R21
001cfa 9567      	ROR  R22
001cfb 2f75      	MOV  R23,R21
001cfc 9508      	RET
                 __REPACK1:
001cfd 935f      	PUSH R21
001cfe 2000      	TST  R0
001cff f00a      	BRMI __REPACK2
001d00 c0cf      	RJMP __MAXRES
                 __REPACK2:
001d01 c0c8      	RJMP __MINRES
                 
                 __UNPACK:
001d02 e850      	LDI  R21,0x80
001d03 2e19      	MOV  R1,R25
001d04 2215      	AND  R1,R21
001d05 0f88      	LSL  R24
001d06 1f99      	ROL  R25
001d07 2795      	EOR  R25,R21
001d08 0f55      	LSL  R21
001d09 9587      	ROR  R24
                 
                 __UNPACK1:
001d0a e850      	LDI  R21,0x80
001d0b 2e07      	MOV  R0,R23
001d0c 2205      	AND  R0,R21
001d0d 0f66      	LSL  R22
001d0e 1f77      	ROL  R23
001d0f 2775      	EOR  R23,R21
001d10 0f55      	LSL  R21
001d11 9567      	ROR  R22
001d12 9508      	RET
                 
                 __CFD1U:
001d13 9468      	SET
001d14 c001      	RJMP __CFD1U0
                 __CFD1:
001d15 94e8      	CLT
                 __CFD1U0:
001d16 935f      	PUSH R21
001d17 dff2      	RCALL __UNPACK1
001d18 3870      	CPI  R23,0x80
001d19 f018      	BRLO __CFD10
001d1a 3f7f      	CPI  R23,0xFF
001d1b f408      	BRCC __CFD10
001d1c c0a7      	RJMP __ZERORES
                 __CFD10:
001d1d e156      	LDI  R21,22
001d1e 1b57      	SUB  R21,R23
001d1f f4aa      	BRPL __CFD11
001d20 9551      	NEG  R21
001d21 3058      	CPI  R21,8
001d22 f40e      	BRTC __CFD19
001d23 3059      	CPI  R21,9
                 __CFD19:
001d24 f030      	BRLO __CFD17
001d25 efef      	SER  R30
001d26 efff      	SER  R31
001d27 ef6f      	SER  R22
001d28 e77f      	LDI  R23,0x7F
001d29 f977      	BLD  R23,7
001d2a c01a      	RJMP __CFD15
                 __CFD17:
001d2b 2777      	CLR  R23
001d2c 2355      	TST  R21
001d2d f0b9      	BREQ __CFD15
                 __CFD18:
001d2e 0fee      	LSL  R30
001d2f 1fff      	ROL  R31
001d30 1f66      	ROL  R22
001d31 1f77      	ROL  R23
001d32 955a      	DEC  R21
001d33 f7d1      	BRNE __CFD18
001d34 c010      	RJMP __CFD15
                 __CFD11:
001d35 2777      	CLR  R23
                 __CFD12:
001d36 3058      	CPI  R21,8
001d37 f028      	BRLO __CFD13
001d38 2fef      	MOV  R30,R31
001d39 2ff6      	MOV  R31,R22
001d3a 2f67      	MOV  R22,R23
001d3b 5058      	SUBI R21,8
001d3c cff9      	RJMP __CFD12
                 __CFD13:
001d3d 2355      	TST  R21
001d3e f031      	BREQ __CFD15
                 __CFD14:
001d3f 9576      	LSR  R23
001d40 9567      	ROR  R22
001d41 95f7      	ROR  R31
001d42 95e7      	ROR  R30
001d43 955a      	DEC  R21
001d44 f7d1      	BRNE __CFD14
                 __CFD15:
001d45 2000      	TST  R0
001d46 f40a      	BRPL __CFD16
001d47 d14a      	RCALL __ANEGD1
                 __CFD16:
001d48 915f      	POP  R21
001d49 9508      	RET
                 
                 __CDF1U:
001d4a 9468      	SET
001d4b c001      	RJMP __CDF1U0
                 __CDF1:
001d4c 94e8      	CLT
                 __CDF1U0:
001d4d 9730      	SBIW R30,0
001d4e 4060      	SBCI R22,0
001d4f 4070      	SBCI R23,0
001d50 f0b1      	BREQ __CDF10
001d51 2400      	CLR  R0
001d52 f026      	BRTS __CDF11
001d53 2377      	TST  R23
001d54 f412      	BRPL __CDF11
001d55 9400      	COM  R0
001d56 d13b      	RCALL __ANEGD1
                 __CDF11:
001d57 2e17      	MOV  R1,R23
001d58 e17e      	LDI  R23,30
001d59 2011      	TST  R1
                 __CDF12:
001d5a f032      	BRMI __CDF13
001d5b 957a      	DEC  R23
001d5c 0fee      	LSL  R30
001d5d 1fff      	ROL  R31
001d5e 1f66      	ROL  R22
001d5f 1c11      	ROL  R1
001d60 cff9      	RJMP __CDF12
                 __CDF13:
001d61 2fef      	MOV  R30,R31
001d62 2ff6      	MOV  R31,R22
001d63 2d61      	MOV  R22,R1
001d64 935f      	PUSH R21
001d65 df8a      	RCALL __REPACK
001d66 915f      	POP  R21
                 __CDF10:
001d67 9508      	RET
                 
                 __SWAPACC:
001d68 934f      	PUSH R20
001d69 01af      	MOVW R20,R30
001d6a 01fd      	MOVW R30,R26
001d6b 01da      	MOVW R26,R20
001d6c 01ab      	MOVW R20,R22
001d6d 01bc      	MOVW R22,R24
001d6e 01ca      	MOVW R24,R20
001d6f 2d40      	MOV  R20,R0
001d70 2c01      	MOV  R0,R1
001d71 2e14      	MOV  R1,R20
001d72 914f      	POP  R20
001d73 9508      	RET
                 
                 __UADD12:
001d74 0fea      	ADD  R30,R26
001d75 1ffb      	ADC  R31,R27
001d76 1f68      	ADC  R22,R24
001d77 9508      	RET
                 
                 __NEGMAN1:
001d78 95e0      	COM  R30
001d79 95f0      	COM  R31
001d7a 9560      	COM  R22
001d7b 5fef      	SUBI R30,-1
001d7c 4fff      	SBCI R31,-1
001d7d 4f6f      	SBCI R22,-1
001d7e 9508      	RET
                 
                 __SUBF12:
001d7f 935f      	PUSH R21
001d80 df81      	RCALL __UNPACK
001d81 3890      	CPI  R25,0x80
001d82 f171      	BREQ __ADDF129
001d83 e850      	LDI  R21,0x80
001d84 2615      	EOR  R1,R21
                 
001d85 c004      	RJMP __ADDF120
                 
                 __ADDF12:
001d86 935f      	PUSH R21
001d87 df7a      	RCALL __UNPACK
001d88 3890      	CPI  R25,0x80
001d89 f139      	BREQ __ADDF129
                 
                 __ADDF120:
001d8a 3870      	CPI  R23,0x80
001d8b f121      	BREQ __ADDF128
                 __ADDF121:
001d8c 2f57      	MOV  R21,R23
001d8d 1b59      	SUB  R21,R25
001d8e f12b      	BRVS __ADDF1211
001d8f f412      	BRPL __ADDF122
001d90 dfd7      	RCALL __SWAPACC
001d91 cffa      	RJMP __ADDF121
                 __ADDF122:
001d92 3158      	CPI  R21,24
001d93 f018      	BRLO __ADDF123
001d94 27aa      	CLR  R26
001d95 27bb      	CLR  R27
001d96 2788      	CLR  R24
                 __ADDF123:
001d97 3058      	CPI  R21,8
001d98 f028      	BRLO __ADDF124
001d99 2fab      	MOV  R26,R27
001d9a 2fb8      	MOV  R27,R24
001d9b 2788      	CLR  R24
001d9c 5058      	SUBI R21,8
001d9d cff9      	RJMP __ADDF123
                 __ADDF124:
001d9e 2355      	TST  R21
001d9f f029      	BREQ __ADDF126
                 __ADDF125:
001da0 9586      	LSR  R24
001da1 95b7      	ROR  R27
001da2 95a7      	ROR  R26
001da3 955a      	DEC  R21
001da4 f7d9      	BRNE __ADDF125
                 __ADDF126:
001da5 2d50      	MOV  R21,R0
001da6 2551      	EOR  R21,R1
001da7 f072      	BRMI __ADDF127
001da8 dfcb      	RCALL __UADD12
001da9 f438      	BRCC __ADDF129
001daa 9567      	ROR  R22
001dab 95f7      	ROR  R31
001dac 95e7      	ROR  R30
001dad 9573      	INC  R23
001dae f413      	BRVC __ADDF129
001daf c020      	RJMP __MAXRES
                 __ADDF128:
001db0 dfb7      	RCALL __SWAPACC
                 __ADDF129:
001db1 df3e      	RCALL __REPACK
001db2 915f      	POP  R21
001db3 9508      	RET
                 __ADDF1211:
001db4 f7d8      	BRCC __ADDF128
001db5 cffb      	RJMP __ADDF129
                 __ADDF127:
001db6 1bea      	SUB  R30,R26
001db7 0bfb      	SBC  R31,R27
001db8 0b68      	SBC  R22,R24
001db9 f051      	BREQ __ZERORES
001dba f410      	BRCC __ADDF1210
001dbb 9400      	COM  R0
001dbc dfbb      	RCALL __NEGMAN1
                 __ADDF1210:
001dbd 2366      	TST  R22
001dbe f392      	BRMI __ADDF129
001dbf 0fee      	LSL  R30
001dc0 1fff      	ROL  R31
001dc1 1f66      	ROL  R22
001dc2 957a      	DEC  R23
001dc3 f7cb      	BRVC __ADDF1210
                 
                 __ZERORES:
001dc4 27ee      	CLR  R30
001dc5 27ff      	CLR  R31
001dc6 2766      	CLR  R22
001dc7 2777      	CLR  R23
001dc8 915f      	POP  R21
001dc9 9508      	RET
                 
                 __MINRES:
001dca efef      	SER  R30
001dcb efff      	SER  R31
001dcc e76f      	LDI  R22,0x7F
001dcd ef7f      	SER  R23
001dce 915f      	POP  R21
001dcf 9508      	RET
                 
                 __MAXRES:
001dd0 efef      	SER  R30
001dd1 efff      	SER  R31
001dd2 e76f      	LDI  R22,0x7F
001dd3 e77f      	LDI  R23,0x7F
001dd4 915f      	POP  R21
001dd5 9508      	RET
                 
                 __MULF12:
001dd6 935f      	PUSH R21
001dd7 df2a      	RCALL __UNPACK
001dd8 3870      	CPI  R23,0x80
001dd9 f351      	BREQ __ZERORES
001dda 3890      	CPI  R25,0x80
001ddb f341      	BREQ __ZERORES
001ddc 2401      	EOR  R0,R1
001ddd 9408      	SEC
001dde 1f79      	ADC  R23,R25
001ddf f423      	BRVC __MULF124
001de0 f31c      	BRLT __ZERORES
                 __MULF125:
001de1 2000      	TST  R0
001de2 f33a      	BRMI __MINRES
001de3 cfec      	RJMP __MAXRES
                 __MULF124:
001de4 920f      	PUSH R0
001de5 931f      	PUSH R17
001de6 932f      	PUSH R18
001de7 933f      	PUSH R19
001de8 934f      	PUSH R20
001de9 2711      	CLR  R17
001dea 2722      	CLR  R18
001deb 2799      	CLR  R25
001dec 9f68      	MUL  R22,R24
001ded 01a0      	MOVW R20,R0
001dee 9f8f      	MUL  R24,R31
001def 2d30      	MOV  R19,R0
001df0 0d41      	ADD  R20,R1
001df1 1f59      	ADC  R21,R25
001df2 9f6b      	MUL  R22,R27
001df3 0d30      	ADD  R19,R0
001df4 1d41      	ADC  R20,R1
001df5 1f59      	ADC  R21,R25
001df6 9f8e      	MUL  R24,R30
001df7 d027      	RCALL __MULF126
001df8 9fbf      	MUL  R27,R31
001df9 d025      	RCALL __MULF126
001dfa 9f6a      	MUL  R22,R26
001dfb d023      	RCALL __MULF126
001dfc 9fbe      	MUL  R27,R30
001dfd d01d      	RCALL __MULF127
001dfe 9faf      	MUL  R26,R31
001dff d01b      	RCALL __MULF127
001e00 9fae      	MUL  R26,R30
001e01 0d11      	ADD  R17,R1
001e02 1f29      	ADC  R18,R25
001e03 1f39      	ADC  R19,R25
001e04 1f49      	ADC  R20,R25
001e05 1f59      	ADC  R21,R25
001e06 2fe3      	MOV  R30,R19
001e07 2ff4      	MOV  R31,R20
001e08 2f65      	MOV  R22,R21
001e09 2f52      	MOV  R21,R18
001e0a 914f      	POP  R20
001e0b 913f      	POP  R19
001e0c 912f      	POP  R18
001e0d 911f      	POP  R17
001e0e 900f      	POP  R0
001e0f 2366      	TST  R22
001e10 f02a      	BRMI __MULF122
001e11 0f55      	LSL  R21
001e12 1fee      	ROL  R30
001e13 1fff      	ROL  R31
001e14 1f66      	ROL  R22
001e15 c002      	RJMP __MULF123
                 __MULF122:
001e16 9573      	INC  R23
001e17 f24b      	BRVS __MULF125
                 __MULF123:
001e18 decd      	RCALL __ROUND_REPACK
001e19 915f      	POP  R21
001e1a 9508      	RET
                 
                 __MULF127:
001e1b 0d10      	ADD  R17,R0
001e1c 1d21      	ADC  R18,R1
001e1d 1f39      	ADC  R19,R25
001e1e c002      	RJMP __MULF128
                 __MULF126:
001e1f 0d20      	ADD  R18,R0
001e20 1d31      	ADC  R19,R1
                 __MULF128:
001e21 1f49      	ADC  R20,R25
001e22 1f59      	ADC  R21,R25
001e23 9508      	RET
                 
                 __DIVF21:
001e24 935f      	PUSH R21
001e25 dedc      	RCALL __UNPACK
001e26 3870      	CPI  R23,0x80
001e27 f421      	BRNE __DIVF210
001e28 2011      	TST  R1
                 __DIVF211:
001e29 f40a      	BRPL __DIVF219
001e2a cf9f      	RJMP __MINRES
                 __DIVF219:
001e2b cfa4      	RJMP __MAXRES
                 __DIVF210:
001e2c 3890      	CPI  R25,0x80
001e2d f409      	BRNE __DIVF218
                 __DIVF217:
001e2e cf95      	RJMP __ZERORES
                 __DIVF218:
001e2f 2401      	EOR  R0,R1
001e30 9408      	SEC
001e31 0b97      	SBC  R25,R23
001e32 f41b      	BRVC __DIVF216
001e33 f3d4      	BRLT __DIVF217
001e34 2000      	TST  R0
001e35 cff3      	RJMP __DIVF211
                 __DIVF216:
001e36 2f79      	MOV  R23,R25
001e37 931f      	PUSH R17
001e38 932f      	PUSH R18
001e39 933f      	PUSH R19
001e3a 934f      	PUSH R20
001e3b 2411      	CLR  R1
001e3c 2711      	CLR  R17
001e3d 2722      	CLR  R18
001e3e 2733      	CLR  R19
001e3f 2744      	CLR  R20
001e40 2755      	CLR  R21
001e41 e290      	LDI  R25,32
                 __DIVF212:
001e42 17ae      	CP   R26,R30
001e43 07bf      	CPC  R27,R31
001e44 0786      	CPC  R24,R22
001e45 0741      	CPC  R20,R17
001e46 f030      	BRLO __DIVF213
001e47 1bae      	SUB  R26,R30
001e48 0bbf      	SBC  R27,R31
001e49 0b86      	SBC  R24,R22
001e4a 0b41      	SBC  R20,R17
001e4b 9408      	SEC
001e4c c001      	RJMP __DIVF214
                 __DIVF213:
001e4d 9488      	CLC
                 __DIVF214:
001e4e 1f55      	ROL  R21
001e4f 1f22      	ROL  R18
001e50 1f33      	ROL  R19
001e51 1c11      	ROL  R1
001e52 1faa      	ROL  R26
001e53 1fbb      	ROL  R27
001e54 1f88      	ROL  R24
001e55 1f44      	ROL  R20
001e56 959a      	DEC  R25
001e57 f751      	BRNE __DIVF212
001e58 01f9      	MOVW R30,R18
001e59 2d61      	MOV  R22,R1
001e5a 914f      	POP  R20
001e5b 913f      	POP  R19
001e5c 912f      	POP  R18
001e5d 911f      	POP  R17
001e5e 2366      	TST  R22
001e5f f032      	BRMI __DIVF215
001e60 0f55      	LSL  R21
001e61 1fee      	ROL  R30
001e62 1fff      	ROL  R31
001e63 1f66      	ROL  R22
001e64 957a      	DEC  R23
001e65 f243      	BRVS __DIVF217
                 __DIVF215:
001e66 de7f      	RCALL __ROUND_REPACK
001e67 915f      	POP  R21
001e68 9508      	RET
                 
                 __CMPF12:
001e69 2399      	TST  R25
001e6a f09a      	BRMI __CMPF120
001e6b 2377      	TST  R23
001e6c f042      	BRMI __CMPF121
001e6d 1797      	CP   R25,R23
001e6e f048      	BRLO __CMPF122
001e6f f429      	BRNE __CMPF121
001e70 17ae      	CP   R26,R30
001e71 07bf      	CPC  R27,R31
001e72 0786      	CPC  R24,R22
001e73 f020      	BRLO __CMPF122
001e74 f031      	BREQ __CMPF123
                 __CMPF121:
001e75 9498      	CLZ
001e76 9488      	CLC
001e77 9508      	RET
                 __CMPF122:
001e78 9498      	CLZ
001e79 9408      	SEC
001e7a 9508      	RET
                 __CMPF123:
001e7b 9418      	SEZ
001e7c 9488      	CLC
001e7d 9508      	RET
                 __CMPF120:
001e7e 2377      	TST  R23
001e7f f7c2      	BRPL __CMPF122
001e80 1797      	CP   R25,R23
001e81 f398      	BRLO __CMPF121
001e82 f7a9      	BRNE __CMPF122
001e83 17ea      	CP   R30,R26
001e84 07fb      	CPC  R31,R27
001e85 0768      	CPC  R22,R24
001e86 f388      	BRLO __CMPF122
001e87 f399      	BREQ __CMPF123
001e88 cfec      	RJMP __CMPF121
                 
                 __SUBD12:
001e89 1bea      	SUB  R30,R26
001e8a 0bfb      	SBC  R31,R27
001e8b 0b68      	SBC  R22,R24
001e8c 0b79      	SBC  R23,R25
001e8d 9508      	RET
                 
                 __ANEGW1:
001e8e 95f1      	NEG  R31
001e8f 95e1      	NEG  R30
001e90 40f0      	SBCI R31,0
001e91 9508      	RET
                 
                 __ANEGD1:
001e92 95f0      	COM  R31
001e93 9560      	COM  R22
001e94 9570      	COM  R23
001e95 95e1      	NEG  R30
001e96 4fff      	SBCI R31,-1
001e97 4f6f      	SBCI R22,-1
001e98 4f7f      	SBCI R23,-1
001e99 9508      	RET
                 
                 __LSLW2:
001e9a 0fee      	LSL  R30
001e9b 1fff      	ROL  R31
001e9c 0fee      	LSL  R30
001e9d 1fff      	ROL  R31
001e9e 9508      	RET
                 
                 __ASRW8:
001e9f 2fef      	MOV  R30,R31
001ea0 27ff      	CLR  R31
001ea1 fde7      	SBRC R30,7
001ea2 efff      	SER  R31
001ea3 9508      	RET
                 
                 __CBD1:
001ea4 2ffe      	MOV  R31,R30
001ea5 0fff      	ADD  R31,R31
001ea6 0bff      	SBC  R31,R31
001ea7 2f6f      	MOV  R22,R31
001ea8 2f7f      	MOV  R23,R31
001ea9 9508      	RET
                 
                 __CWD1:
001eaa 2f6f      	MOV  R22,R31
001eab 0f66      	ADD  R22,R22
001eac 0b66      	SBC  R22,R22
001ead 2f76      	MOV  R23,R22
001eae 9508      	RET
                 
                 __EQB12:
001eaf 17ea      	CP   R30,R26
001eb0 e0e1      	LDI  R30,1
001eb1 f009      	BREQ __EQB12T
001eb2 27ee      	CLR  R30
                 __EQB12T:
001eb3 9508      	RET
                 
                 __LEW12:
001eb4 17ea      	CP   R30,R26
001eb5 07fb      	CPC  R31,R27
001eb6 e0e1      	LDI  R30,1
001eb7 f40c      	BRGE __LEW12T
001eb8 27ee      	CLR  R30
                 __LEW12T:
001eb9 9508      	RET
                 
                 __LEW12U:
001eba 17ea      	CP   R30,R26
001ebb 07fb      	CPC  R31,R27
001ebc e0e1      	LDI  R30,1
001ebd f408      	BRSH __LEW12UT
001ebe 27ee      	CLR  R30
                 __LEW12UT:
001ebf 9508      	RET
                 
                 __DIVW21U:
001ec0 2400      	CLR  R0
001ec1 2411      	CLR  R1
001ec2 e190      	LDI  R25,16
                 __DIVW21U1:
001ec3 0faa      	LSL  R26
001ec4 1fbb      	ROL  R27
001ec5 1c00      	ROL  R0
001ec6 1c11      	ROL  R1
001ec7 1a0e      	SUB  R0,R30
001ec8 0a1f      	SBC  R1,R31
001ec9 f418      	BRCC __DIVW21U2
001eca 0e0e      	ADD  R0,R30
001ecb 1e1f      	ADC  R1,R31
001ecc c001      	RJMP __DIVW21U3
                 __DIVW21U2:
001ecd 60a1      	SBR  R26,1
                 __DIVW21U3:
001ece 959a      	DEC  R25
001ecf f799      	BRNE __DIVW21U1
001ed0 01fd      	MOVW R30,R26
001ed1 01d0      	MOVW R26,R0
001ed2 9508      	RET
                 
                 __DIVW21:
001ed3 d012      	RCALL __CHKSIGNW
001ed4 dfeb      	RCALL __DIVW21U
001ed5 f40e      	BRTC __DIVW211
001ed6 dfb7      	RCALL __ANEGW1
                 __DIVW211:
001ed7 9508      	RET
                 
                 __MODW21:
001ed8 94e8      	CLT
001ed9 ffb7      	SBRS R27,7
001eda c004      	RJMP __MODW211
001edb 95a0      	COM  R26
001edc 95b0      	COM  R27
001edd 9611      	ADIW R26,1
001ede 9468      	SET
                 __MODW211:
001edf fdf7      	SBRC R31,7
001ee0 dfad      	RCALL __ANEGW1
001ee1 dfde      	RCALL __DIVW21U
001ee2 01fd      	MOVW R30,R26
001ee3 f40e      	BRTC __MODW212
001ee4 dfa9      	RCALL __ANEGW1
                 __MODW212:
001ee5 9508      	RET
                 
                 __CHKSIGNW:
001ee6 94e8      	CLT
001ee7 fff7      	SBRS R31,7
001ee8 c002      	RJMP __CHKSW1
001ee9 dfa4      	RCALL __ANEGW1
001eea 9468      	SET
                 __CHKSW1:
001eeb ffb7      	SBRS R27,7
001eec c006      	RJMP __CHKSW2
001eed 95a0      	COM  R26
001eee 95b0      	COM  R27
001eef 9611      	ADIW R26,1
001ef0 f800      	BLD  R0,0
001ef1 9403      	INC  R0
001ef2 fa00      	BST  R0,0
                 __CHKSW2:
001ef3 9508      	RET
                 
                 __GETW1P:
001ef4 91ed      	LD   R30,X+
001ef5 91fc      	LD   R31,X
001ef6 9711      	SBIW R26,1
001ef7 9508      	RET
                 
                 __PUTDP1:
001ef8 93ed      	ST   X+,R30
001ef9 93fd      	ST   X+,R31
001efa 936d      	ST   X+,R22
001efb 937c      	ST   X,R23
001efc 9508      	RET
                 
                 __GETW2PF:
001efd 91a5      	LPM  R26,Z+
001efe 91b4      	LPM  R27,Z
001eff 9508      	RET
                 
                 __GETD1S0:
001f00 81e8      	LD   R30,Y
001f01 81f9      	LDD  R31,Y+1
001f02 816a      	LDD  R22,Y+2
001f03 817b      	LDD  R23,Y+3
001f04 9508      	RET
                 
                 __PUTD1S0:
001f05 83e8      	ST   Y,R30
001f06 83f9      	STD  Y+1,R31
001f07 836a      	STD  Y+2,R22
001f08 837b      	STD  Y+3,R23
001f09 9508      	RET
                 
                 __CLRD1S0:
001f0a 83e8      	ST   Y,R30
001f0b 83e9      	STD  Y+1,R30
001f0c 83ea      	STD  Y+2,R30
001f0d 83eb      	STD  Y+3,R30
001f0e 9508      	RET
                 
                 __PUTPARD1:
001f0f 937a      	ST   -Y,R23
001f10 936a      	ST   -Y,R22
001f11 93fa      	ST   -Y,R31
001f12 93ea      	ST   -Y,R30
001f13 9508      	RET
                 
                 __CDF2U:
001f14 9468      	SET
001f15 c001      	RJMP __CDF2U0
                 __CDF2:
001f16 94e8      	CLT
                 __CDF2U0:
001f17 d001      	RCALL __SWAPD12
001f18 de34      	RCALL __CDF1U0
                 
                 __SWAPD12:
001f19 2e18      	MOV  R1,R24
001f1a 2f86      	MOV  R24,R22
001f1b 2d61      	MOV  R22,R1
001f1c 2e19      	MOV  R1,R25
001f1d 2f97      	MOV  R25,R23
001f1e 2d71      	MOV  R23,R1
                 
                 __SWAPW12:
001f1f 2e1b      	MOV  R1,R27
001f20 2fbf      	MOV  R27,R31
001f21 2df1      	MOV  R31,R1
                 
                 __SWAPB12:
001f22 2e1a      	MOV  R1,R26
001f23 2fae      	MOV  R26,R30
001f24 2de1      	MOV  R30,R1
001f25 9508      	RET
                 
                 __EEPROMRDD:
001f26 9612      	ADIW R26,2
001f27 d002      	RCALL __EEPROMRDW
001f28 01bf      	MOVW R22,R30
001f29 9712      	SBIW R26,2
                 
                 __EEPROMRDW:
001f2a 9611      	ADIW R26,1
001f2b d002      	RCALL __EEPROMRDB
001f2c 2ffe      	MOV  R31,R30
001f2d 9711      	SBIW R26,1
                 
                 __EEPROMRDB:
001f2e 99e1      	SBIC EECR,EEWE
001f2f cffe      	RJMP __EEPROMRDB
001f30 93ff      	PUSH R31
001f31 b7ff      	IN   R31,SREG
001f32 94f8      	CLI
001f33 bbae      	OUT  EEARL,R26
001f34 bbbf      	OUT  EEARH,R27
001f35 9ae0      	SBI  EECR,EERE
001f36 b3ed      	IN   R30,EEDR
001f37 bfff      	OUT  SREG,R31
001f38 91ff      	POP  R31
001f39 9508      	RET
                 
                 __EEPROMWRD:
001f3a d007      	RCALL __EEPROMWRW
001f3b 9612      	ADIW R26,2
001f3c 010f      	MOVW R0,R30
001f3d 01fb      	MOVW R30,R22
001f3e d003      	RCALL __EEPROMWRW
001f3f 01f0      	MOVW R30,R0
001f40 9712      	SBIW R26,2
001f41 9508      	RET
                 
                 __EEPROMWRW:
001f42 d007      	RCALL __EEPROMWRB
001f43 9611      	ADIW R26,1
001f44 93ef      	PUSH R30
001f45 2fef      	MOV  R30,R31
001f46 d003      	RCALL __EEPROMWRB
001f47 91ef      	POP  R30
001f48 9711      	SBIW R26,1
001f49 9508      	RET
                 
                 __EEPROMWRB:
001f4a 9be1      	SBIS EECR,EEWE
001f4b c002      	RJMP __EEPROMWRB1
001f4c 95a8      	WDR
001f4d cffc      	RJMP __EEPROMWRB
                 __EEPROMWRB1:
001f4e b79f      	IN   R25,SREG
001f4f 94f8      	CLI
001f50 bbae      	OUT  EEARL,R26
001f51 bbbf      	OUT  EEARH,R27
001f52 9ae0      	SBI  EECR,EERE
001f53 b38d      	IN   R24,EEDR
001f54 17e8      	CP   R30,R24
001f55 f019      	BREQ __EEPROMWRB0
001f56 bbed      	OUT  EEDR,R30
001f57 9ae2      	SBI  EECR,EEMWE
001f58 9ae1      	SBI  EECR,EEWE
                 __EEPROMWRB0:
001f59 bf9f      	OUT  SREG,R25
001f5a 9508      	RET
                 
                 __CPD10:
001f5b 9730      	SBIW R30,0
001f5c 4060      	SBCI R22,0
001f5d 4070      	SBCI R23,0
001f5e 9508      	RET
                 
                 __CPD02:
001f5f 2400      	CLR  R0
001f60 160a      	CP   R0,R26
001f61 060b      	CPC  R0,R27
001f62 0608      	CPC  R0,R24
001f63 0609      	CPC  R0,R25
001f64 9508      	RET
                 
                 __SAVELOCR4:
001f65 933a      	ST   -Y,R19
                 __SAVELOCR3:
001f66 932a      	ST   -Y,R18
                 __SAVELOCR2:
001f67 931a      	ST   -Y,R17
001f68 930a      	ST   -Y,R16
001f69 9508      	RET
                 
                 __LOADLOCR4:
001f6a 813b      	LDD  R19,Y+3
                 __LOADLOCR3:
001f6b 812a      	LDD  R18,Y+2
                 __LOADLOCR2:
001f6c 8119      	LDD  R17,Y+1
001f6d 8108      	LD   R16,Y
001f6e 9508      	RET
                 
                 __INITLOCB:
                 __INITLOCW:
001f6f 0fac      	ADD  R26,R28
001f70 1fbd      	ADC  R27,R29
                 __INITLOC0:
001f71 9005      	LPM  R0,Z+
001f72 920d      	ST   X+,R0
001f73 958a      	DEC  R24
001f74 f7e1      	BRNE __INITLOC0
001f75 9508      	RET
                 
                 ;END OF CODE MARKER
                 __END_OF_CODE:


RESOURCE USE INFORMATION
------------------------

Notice:
The register and instruction counts are symbol table hit counts,
and hence implicitly used resources are not counted, eg, the
'lpm' instruction without operands implicitly uses r0 and z,
none of which are counted.

x,y,z are separate entities in the symbol table and are
counted separately from r26..r31 here.

.dseg memory usage only counts static data declared with .byte

ATmega16L register use summary:
r0 :  68 r1 :  40 r2 :  39 r3 :  37 r4 :  60 r5 :   6 r6 :   8 r7 :   0 
r8 :   2 r9 :   4 r10:   0 r11:  10 r12:   6 r13:   6 r14:   0 r15:  13 
r16:  47 r17: 148 r18:  19 r19:  19 r20:  25 r21:  68 r22: 190 r23: 173 
r24: 113 r25: 106 r26: 789 r27: 343 r28:  32 r29:   2 r30:1565 r31: 290 
x  :  51 y  : 637 z  :  28 
Registers used: 32 out of 35 (91.4%)

ATmega16L instruction use summary:
.lds  :   0 .lds.l:   0 .sts  :   0 .sts.l:   0 adc   :  38 add   :  30 
adiw  :  30 and   :   7 andi  :  24 asr   :   1 bclr  :   0 bld   :  85 
brbc  :   0 brbs  :   0 brcc  :  16 brcs  :   3 break :   0 breq  : 107 
brge  :  12 brhc  :   0 brhs  :   0 brid  :   0 brie  :   0 brlo  :  46 
brlt  :  11 brmi  :   9 brne  : 287 brpl  :  18 brsh  :  42 brtc  :   4 
brts  :   1 brvc  :   4 brvs  :   4 bset  :   0 bst   :   3 call  : 887 
cbi   :   8 cbr   :   1 clc   :   3 clh   :   0 cli   :   6 cln   :   0 
clr   :  68 cls   :   0 clt   :  39 clv   :   0 clz   :   2 com   :  12 
cp    :  29 cpc   :  98 cpi   : 332 cpse  :   0 dec   :  12 des   :   0 
eor   :  12 fmul  :   0 fmuls :   0 fmulsu:   0 icall :   0 ijmp  :   0 
in    :  13 inc   :   7 jmp   :  58 ld    :  72 ldd   : 307 ldi   : 996 
lds   : 272 lpm   :  15 lsl   :  23 lsr   :   3 mov   :  81 movw  :  66 
mul   :   9 muls  :   0 mulsu :   0 neg   :   5 nop   :   0 or    :   9 
ori   :  17 out   :  59 pop   :  98 push  :  98 rcall :  92 ret   : 205 
reti  :  10 rjmp  : 482 rol   :  34 ror   :  16 sbc   :  12 sbci  :  23 
sbi   :  23 sbic  :  14 sbis  :  14 sbiw  :  27 sbr   :   3 sbrc  :  36 
sbrs  :  44 sec   :   5 seh   :   0 sei   :   5 sen   :   0 ser   :   9 
ses   :   0 set   :  37 sev   :   0 sez   :   1 sleep :   0 spm   :   0 
st    : 213 std   : 111 sts   : 264 sub   :   7 subi  :  71 swap  :   0 
tst   :  30 wdr   :   4 
Instructions used: 82 out of 116 (70.7%)

ATmega16L memory use summary [bytes]:
Segment   Begin    End      Code   Data   Used    Size   Use%
---------------------------------------------------------------
[.cseg] 0x000000 0x003eec  15540    568  16108   16384  98.3%
[.dseg] 0x000060 0x00023e      0    222    222    1119  19.8%
[.eseg] 0x000000 0x0001b9      0    441    441     512  86.1%

Assembly complete, 0 errors, 11 warnings
